Component: ARM Compiler 5.06 update 4 (build 422) Tool: armlink [4d35d2]

==============================================================================

Section Cross References

    file_config.o(i.fs_config) refers to file_config.o(.bss) for .bss
    file_config.o(i.fs_config) refers to file_config.o(.constdata) for .constdata
    file_config.o(i.fs_config) refers to spi_lpc17xx.o(.constdata) for spi0_drv
    file_config.o(i.mc0_DevCtrl) refers to fs_mmc.o(i.mmc_DevCtrl) for mmc_DevCtrl
    file_config.o(i.mc0_DevCtrl) refers to file_config.o(.bss) for .bss
    file_config.o(i.mc0_Init) refers to fs_mmc.o(i.mmc_Init) for mmc_Init
    file_config.o(i.mc0_Init) refers to file_config.o(.bss) for .bss
    file_config.o(i.mc0_RdInfo) refers to fs_mmc.o(i.mmc_ReadInfo) for mmc_ReadInfo
    file_config.o(i.mc0_RdInfo) refers to file_config.o(.bss) for .bss
    file_config.o(i.mc0_RdSect) refers to fs_mmc.o(i.mmc_ReadSector) for mmc_ReadSector
    file_config.o(i.mc0_RdSect) refers to file_config.o(.bss) for .bss
    file_config.o(i.mc0_UnInit) refers to fs_mmc.o(i.mmc_UnInit) for mmc_UnInit
    file_config.o(i.mc0_UnInit) refers to file_config.o(.bss) for .bss
    file_config.o(i.mc0_WrSect) refers to fs_mmc.o(i.mmc_WriteSector) for mmc_WriteSector
    file_config.o(i.mc0_WrSect) refers to file_config.o(.bss) for .bss
    file_config.o(.constdata) refers to file_config.o(i.mc0_Init) for mc0_Init
    file_config.o(.constdata) refers to file_config.o(i.mc0_UnInit) for mc0_UnInit
    file_config.o(.constdata) refers to file_config.o(i.mc0_RdSect) for mc0_RdSect
    file_config.o(.constdata) refers to file_config.o(i.mc0_WrSect) for mc0_WrSect
    file_config.o(.constdata) refers to file_config.o(i.mc0_RdInfo) for mc0_RdInfo
    file_config.o(.constdata) refers to file_config.o(i.mc0_DevCtrl) for mc0_DevCtrl
    file_config.o(.constdata) refers to file_config.o(.bss) for mc0_vol
    retarget.o(i._sys_close) refers (Special) to use_no_semi.o(.text) for __use_no_semihosting_swi
    retarget.o(i._sys_close) refers to fs_sys.o(i.__sys_close) for __sys_close
    retarget.o(i._sys_command_string) refers (Special) to use_no_semi.o(.text) for __use_no_semihosting_swi
    retarget.o(i._sys_ensure) refers (Special) to use_no_semi.o(.text) for __use_no_semihosting_swi
    retarget.o(i._sys_ensure) refers to fs_sys.o(i.__sys_ensure) for __sys_ensure
    retarget.o(i._sys_exit) refers (Special) to use_no_semi.o(.text) for __use_no_semihosting_swi
    retarget.o(i._sys_flen) refers (Special) to use_no_semi.o(.text) for __use_no_semihosting_swi
    retarget.o(i._sys_flen) refers to fs_sys.o(i.__sys_flen) for __sys_flen
    retarget.o(i._sys_istty) refers (Special) to use_no_semi.o(.text) for __use_no_semihosting_swi
    retarget.o(i._sys_open) refers (Special) to use_no_semi.o(.text) for __use_no_semihosting_swi
    retarget.o(i._sys_open) refers to strcmpv7m.o(.text) for strcmp
    retarget.o(i._sys_open) refers to fs_sys.o(i.__sys_open) for __sys_open
    retarget.o(i._sys_read) refers (Special) to use_no_semi.o(.text) for __use_no_semihosting_swi
    retarget.o(i._sys_read) refers to retarget.o(i.getkey) for getkey
    retarget.o(i._sys_read) refers to fs_sys.o(i.__sys_read) for __sys_read
    retarget.o(i._sys_seek) refers (Special) to use_no_semi.o(.text) for __use_no_semihosting_swi
    retarget.o(i._sys_seek) refers to fs_sys.o(i.__sys_seek) for __sys_seek
    retarget.o(i._sys_tmpnam) refers (Special) to use_no_semi.o(.text) for __use_no_semihosting_swi
    retarget.o(i._sys_write) refers (Special) to use_no_semi.o(.text) for __use_no_semihosting_swi
    retarget.o(i._sys_write) refers to retarget.o(i.sendchar) for sendchar
    retarget.o(i._sys_write) refers to fs_sys.o(i.__sys_write) for __sys_write
    retarget.o(i._ttywrch) refers (Special) to use_no_semi.o(.text) for __use_no_semihosting_swi
    retarget.o(i._ttywrch) refers to retarget.o(i.sendchar) for sendchar
    retarget.o(i.getkey) refers (Special) to use_no_semi.o(.text) for __use_no_semihosting_swi
    retarget.o(i.getkey) refers to serial.o(i.SER_GetChar) for SER_GetChar
    retarget.o(i.sendchar) refers (Special) to use_no_semi.o(.text) for __use_no_semihosting_swi
    retarget.o(i.sendchar) refers to serial.o(i.SER_PutChar) for SER_PutChar
    retarget.o(.constdata) refers (Special) to use_no_semi.o(.text) for __use_no_semihosting_swi
    spi_lpc17xx.o(.constdata) refers to spi_lpc17xx.o(i.Init) for Init
    spi_lpc17xx.o(.constdata) refers to spi_lpc17xx.o(i.UnInit) for UnInit
    spi_lpc17xx.o(.constdata) refers to spi_lpc17xx.o(i.Send) for Send
    spi_lpc17xx.o(.constdata) refers to spi_lpc17xx.o(i.SendBuf) for SendBuf
    spi_lpc17xx.o(.constdata) refers to spi_lpc17xx.o(i.RecBuf) for RecBuf
    spi_lpc17xx.o(.constdata) refers to spi_lpc17xx.o(i.BusSpeed) for BusSpeed
    spi_lpc17xx.o(.constdata) refers to spi_lpc17xx.o(i.SetSS) for SetSS
    spi_lpc17xx.o(.constdata) refers to spi_lpc17xx.o(i.CheckMedia) for CheckMedia
    main.o(i.LED_out) refers to main.o(.constdata) for .constdata
    main.o(i.dhcp_check) refers to _printf_percent.o(.ARM.Collect$$_printf_percent$$00000000) for _printf_percent
    main.o(i.dhcp_check) refers to _printf_d.o(.ARM.Collect$$_printf_percent$$00000009) for _printf_d
    main.o(i.dhcp_check) refers to _printf_dec.o(.text) for _printf_int_dec
    main.o(i.dhcp_check) refers to at_lib.o(i.mem_test) for mem_test
    main.o(i.dhcp_check) refers to __2sprintf.o(.text) for __2sprintf
    main.o(i.dhcp_check) refers to at_dhcp.o(i.dhcp_disable) for dhcp_disable
    main.o(i.dhcp_check) refers to main.o(.data) for tick
    main.o(i.dhcp_check) refers to at_system.o(.bss) for localm
    main.o(i.getSDData) refers to fs_mapi.o(i.finit) for finit
    main.o(i.getSDData) refers to fs_mapi.o(i.ffind) for ffind
    main.o(i.getSDData) refers to fclose.o(.text) for fclose
    main.o(i.init) refers to main.o(i.init_io) for init_io
    main.o(i.init) refers to at_system.o(i.init_TcpNet) for init_TcpNet
    main.o(i.init) refers to system_lpc17xx.o(.data) for SystemCoreClock
    main.o(i.main) refers to main.o(i.init) for init
    main.o(i.main) refers to serial.o(i.SER_Init) for SER_Init
    main.o(i.main) refers to main.o(i.timer_poll) for timer_poll
    main.o(i.main) refers to at_system.o(i.main_TcpNet) for main_TcpNet
    main.o(i.main) refers to main.o(i.dhcp_check) for dhcp_check
    main.o(i.main) refers to main.o(.data) for LEDrun
    main.o(i.timer_poll) refers to at_system.o(i.timer_tick) for timer_tick
    main.o(i.timer_poll) refers to main.o(.data) for tick
    system_lpc17xx.o(i.SystemCoreClockUpdate) refers to lludivv7m.o(.text) for __aeabi_uldivmod
    system_lpc17xx.o(i.SystemCoreClockUpdate) refers to system_lpc17xx.o(.data) for SystemCoreClock
    startup_lpc17xx.o(STACK) refers (Special) to heapauxi.o(.text) for __use_two_region_memory
    startup_lpc17xx.o(HEAP) refers (Special) to heapauxi.o(.text) for __use_two_region_memory
    startup_lpc17xx.o(RESET) refers (Special) to heapauxi.o(.text) for __use_two_region_memory
    startup_lpc17xx.o(RESET) refers to startup_lpc17xx.o(STACK) for __initial_sp
    startup_lpc17xx.o(RESET) refers to startup_lpc17xx.o(.text) for Reset_Handler
    startup_lpc17xx.o(RESET) refers to emac_lpc17xx.o(i.ENET_IRQHandler) for ENET_IRQHandler
    startup_lpc17xx.o(.ARM.__at_0x02FC) refers (Special) to heapauxi.o(.text) for __use_two_region_memory
    startup_lpc17xx.o(.text) refers (Special) to heapauxi.o(.text) for __use_two_region_memory
    startup_lpc17xx.o(.text) refers to system_lpc17xx.o(i.SystemInit) for SystemInit
    startup_lpc17xx.o(.text) refers to __main.o(!!!main) for __main
    startup_lpc17xx.o(.text) refers to startup_lpc17xx.o(HEAP) for Heap_Mem
    startup_lpc17xx.o(.text) refers to startup_lpc17xx.o(STACK) for Stack_Mem
    http_cgi.o(i.cgi_func) refers to _printf_pad.o(.text) for _printf_pre_padding
    http_cgi.o(i.cgi_func) refers to _printf_percent.o(.ARM.Collect$$_printf_percent$$00000000) for _printf_percent
    http_cgi.o(i.cgi_func) refers to _printf_p.o(.ARM.Collect$$_printf_percent$$00000002) for _printf_p
    http_cgi.o(i.cgi_func) refers to _printf_s.o(.ARM.Collect$$_printf_percent$$00000014) for _printf_s
    http_cgi.o(i.cgi_func) refers to _printf_n.o(.ARM.Collect$$_printf_percent$$00000001) for _printf_n
    http_cgi.o(i.cgi_func) refers to _printf_charcount.o(.text) for _printf_charcount
    http_cgi.o(i.cgi_func) refers to _printf_hex_ptr.o(.text) for _printf_longlong_hex
    http_cgi.o(i.cgi_func) refers to _printf_str.o(.text) for _printf_str
    http_cgi.o(i.cgi_func) refers to _printf_c.o(.ARM.Collect$$_printf_percent$$00000013) for _printf_c
    http_cgi.o(i.cgi_func) refers to __2sprintf.o(.text) for __2sprintf
    http_cgi.o(i.cgi_func) refers to main.o(i.get_button) for get_button
    http_cgi.o(i.cgi_func) refers to main.o(i.getSDData) for getSDData
    http_cgi.o(i.cgi_func) refers to http_cgi.o(.data) for P2
    http_cgi.o(i.cgi_process_data) refers to main.o(i.LED_out) for LED_out
    http_cgi.o(i.cgi_process_data) refers to at_mem.o(i.alloc_mem) for alloc_mem
    http_cgi.o(i.cgi_process_data) refers to at_http.o(i.http_get_var) for http_get_var
    http_cgi.o(i.cgi_process_data) refers to at_lib.o(i.str_scomp) for str_scomp
    http_cgi.o(i.cgi_process_data) refers to at_mem.o(i.free_mem) for free_mem
    http_cgi.o(i.cgi_process_data) refers to strlen.o(.text) for strlen
    http_cgi.o(i.cgi_process_data) refers to at_lib.o(i.mem_comp) for mem_comp
    http_cgi.o(i.cgi_process_data) refers to at_lib.o(i.str_copy) for str_copy
    http_cgi.o(i.cgi_process_data) refers to http_cgi.o(.data) for P2
    http_cgi.o(i.cgi_process_data) refers to main.o(.data) for LEDrun
    http_cgi.o(i.cgi_process_data) refers to net_config.o(.constdata) for http_config
    http_cgi.o(i.cgi_process_var) refers to _scanf_int.o(.text) for _scanf_int
    http_cgi.o(i.cgi_process_var) refers to at_mem.o(i.alloc_mem) for alloc_mem
    http_cgi.o(i.cgi_process_var) refers to at_http.o(i.http_get_var) for http_get_var
    http_cgi.o(i.cgi_process_var) refers to at_lib.o(i.str_scomp) for str_scomp
    http_cgi.o(i.cgi_process_var) refers to __0sscanf.o(.text) for __0sscanf
    http_cgi.o(i.cgi_process_var) refers to at_mem.o(i.free_mem) for free_mem
    http_cgi.o(i.cgi_process_var) refers to at_system.o(.bss) for localm
    net_config.o(i.init_system) refers to at_ethernet.o(i.eth_init_link) for eth_init_link
    net_config.o(i.init_system) refers to at_ip.o(i.ip_init) for ip_init
    net_config.o(i.init_system) refers to at_icmp.o(i.icmp_init) for icmp_init
    net_config.o(i.init_system) refers to at_udp.o(i.udp_init) for udp_init
    net_config.o(i.init_system) refers to at_tcp.o(i.tcp_init) for tcp_init
    net_config.o(i.init_system) refers to at_http.o(i.http_init) for http_init
    net_config.o(i.init_system) refers to at_nbns.o(i.nbns_init) for nbns_init
    net_config.o(i.init_system) refers to at_dhcp.o(i.dhcp_init) for dhcp_init
    net_config.o(i.run_system) refers to at_ethernet.o(i.eth_run_link) for eth_run_link
    net_config.o(i.run_system) refers to at_ip.o(i.ip_run_local) for ip_run_local
    net_config.o(i.run_system) refers to at_icmp.o(i.icmp_run_engine) for icmp_run_engine
    net_config.o(i.run_system) refers to at_tcp.o(i.tcp_poll_sockets) for tcp_poll_sockets
    net_config.o(i.run_system) refers to at_http.o(i.http_run_server) for http_run_server
    net_config.o(i.run_system) refers to at_dhcp.o(i.dhcp_run_client) for dhcp_run_client
    net_config.o(.constdata) refers to net_config.o(.bss) for mem_pool
    net_config.o(.constdata) refers to net_config.o(.data) for lhost_name
    net_config.o(.constdata) refers to net_config.o(.conststring) for .conststring
    emac_lpc17xx.o(i.ENET_IRQHandler) refers to at_mem.o(i.alloc_mem) for alloc_mem
    emac_lpc17xx.o(i.ENET_IRQHandler) refers to at_ethernet.o(i.put_in_queue) for put_in_queue
    emac_lpc17xx.o(i.ENET_IRQHandler) refers to emac_lpc17xx.o(.bss) for Rx_Stat
    emac_lpc17xx.o(i.init_ethernet) refers to emac_lpc17xx.o(i.write_PHY) for write_PHY
    emac_lpc17xx.o(i.init_ethernet) refers to emac_lpc17xx.o(i.read_PHY) for read_PHY
    emac_lpc17xx.o(i.init_ethernet) refers to emac_lpc17xx.o(i.rx_descr_init) for rx_descr_init
    emac_lpc17xx.o(i.init_ethernet) refers to emac_lpc17xx.o(i.tx_descr_init) for tx_descr_init
    emac_lpc17xx.o(i.init_ethernet) refers to emac_lpc17xx.o(.data) for dev_175x
    emac_lpc17xx.o(i.init_ethernet) refers to net_config.o(.data) for own_hw_adr
    emac_lpc17xx.o(i.read_PHY) refers to emac_lpc17xx.o(i.output_MDIO) for output_MDIO
    emac_lpc17xx.o(i.read_PHY) refers to emac_lpc17xx.o(i.turnaround_MDIO) for turnaround_MDIO
    emac_lpc17xx.o(i.read_PHY) refers to emac_lpc17xx.o(i.input_MDIO) for input_MDIO
    emac_lpc17xx.o(i.read_PHY) refers to emac_lpc17xx.o(.data) for dev_175x
    emac_lpc17xx.o(i.rx_descr_init) refers to emac_lpc17xx.o(.bss) for rx_buf
    emac_lpc17xx.o(i.send_frame) refers to emac_lpc17xx.o(.bss) for Tx_Desc
    emac_lpc17xx.o(i.tx_descr_init) refers to emac_lpc17xx.o(.bss) for tx_buf
    emac_lpc17xx.o(i.write_PHY) refers to emac_lpc17xx.o(i.output_MDIO) for output_MDIO
    emac_lpc17xx.o(i.write_PHY) refers to emac_lpc17xx.o(i.turnaround_MDIO) for turnaround_MDIO
    emac_lpc17xx.o(i.write_PHY) refers to emac_lpc17xx.o(.data) for dev_175x
    fs_sys.o(i.__sys_close) refers to fs_fat.o(i.fat_close) for fat_close
    fs_sys.o(i.__sys_close) refers to file_config.o(i.efs_wclose) for efs_wclose
    fs_sys.o(i.__sys_close) refers (Weak) to streamlock.o(.data) for _stream_list_lock
    fs_sys.o(i.__sys_close) refers to file_config.o(.bss) for _iob
    fs_sys.o(i.__sys_ensure) refers to file_config.o(i.efs_ensure) for efs_ensure
    fs_sys.o(i.__sys_ensure) refers (Weak) to streamlock.o(.data) for _stream_list_lock
    fs_sys.o(i.__sys_ensure) refers to file_config.o(.bss) for _iob
    fs_sys.o(i.__sys_flen) refers to file_config.o(i.efs_fsize) for efs_fsize
    fs_sys.o(i.__sys_flen) refers (Weak) to streamlock.o(.data) for _stream_list_lock
    fs_sys.o(i.__sys_flen) refers to file_config.o(.bss) for _iob
    fs_sys.o(i.__sys_open) refers to fs_lib.o(i.fs_find_iob) for fs_find_iob
    fs_sys.o(i.__sys_open) refers to fs_lib.o(i.fs_map_drive) for fs_map_drive
    fs_sys.o(i.__sys_open) refers to fs_fat.o(i.fat_open) for fat_open
    fs_sys.o(i.__sys_open) refers to file_config.o(i.efs_find) for efs_find
    fs_sys.o(i.__sys_open) refers to fs_lib.o(i.fs_efs_lock) for fs_efs_lock
    fs_sys.o(i.__sys_open) refers to file_config.o(i.efs_fsize) for efs_fsize
    fs_sys.o(i.__sys_open) refers to file_config.o(i.efs_delete) for efs_delete
    fs_sys.o(i.__sys_open) refers to file_config.o(i.efs_create) for efs_create
    fs_sys.o(i.__sys_open) refers (Weak) to streamlock.o(.data) for _stream_list_lock
    fs_sys.o(i.__sys_read) refers to fs_fat.o(i.fat_read) for fat_read
    fs_sys.o(i.__sys_read) refers to file_config.o(i.efs_read) for efs_read
    fs_sys.o(i.__sys_read) refers (Weak) to streamlock.o(.data) for _stream_list_lock
    fs_sys.o(i.__sys_read) refers to file_config.o(.bss) for _iob
    fs_sys.o(i.__sys_seek) refers to fs_fat.o(i.fat_seek) for fat_seek
    fs_sys.o(i.__sys_seek) refers to file_config.o(i.efs_seek) for efs_seek
    fs_sys.o(i.__sys_seek) refers (Weak) to streamlock.o(.data) for _stream_list_lock
    fs_sys.o(i.__sys_seek) refers to file_config.o(.bss) for _iob
    fs_sys.o(i.__sys_write) refers to fs_fat.o(i.fat_write) for fat_write
    fs_sys.o(i.__sys_write) refers to file_config.o(i.efs_write) for efs_write
    fs_sys.o(i.__sys_write) refers (Weak) to streamlock.o(.data) for _stream_list_lock
    fs_sys.o(i.__sys_write) refers to file_config.o(.bss) for _iob
    fs_mapi.o(i.fanalyse) refers to fs_lib.o(i.fs_find_iob) for fs_find_iob
    fs_mapi.o(i.fanalyse) refers to fs_lib.o(i.fs_map_drive) for fs_map_drive
    fs_mapi.o(i.fanalyse) refers to file_config.o(i.efs_analyse) for efs_analyse
    fs_mapi.o(i.fanalyse) refers (Weak) to streamlock.o(.data) for _stream_list_lock
    fs_mapi.o(i.fattrib) refers to fs_lib.o(i.fs_find_iob) for fs_find_iob
    fs_mapi.o(i.fattrib) refers to fs_lib.o(i.fs_map_drive) for fs_map_drive
    fs_mapi.o(i.fattrib) refers to fs_fat.o(i.fat_attrib) for fat_attrib
    fs_mapi.o(i.fattrib) refers (Weak) to streamlock.o(.data) for _stream_list_lock
    fs_mapi.o(i.fcheck) refers to fs_lib.o(i.fs_find_iob) for fs_find_iob
    fs_mapi.o(i.fcheck) refers to fs_lib.o(i.fs_map_drive) for fs_map_drive
    fs_mapi.o(i.fcheck) refers to file_config.o(i.efs_check) for efs_check
    fs_mapi.o(i.fcheck) refers (Weak) to streamlock.o(.data) for _stream_list_lock
    fs_mapi.o(i.fdefrag) refers to fs_lib.o(i.fs_find_iob) for fs_find_iob
    fs_mapi.o(i.fdefrag) refers to fs_lib.o(i.fs_map_drive) for fs_map_drive
    fs_mapi.o(i.fdefrag) refers to file_config.o(i.efs_defrag) for efs_defrag
    fs_mapi.o(i.fdefrag) refers (Weak) to streamlock.o(.data) for _stream_list_lock
    fs_mapi.o(i.fdefrag) refers to file_config.o(.bss) for _iob
    fs_mapi.o(i.fdefrag) refers to file_config.o(.constdata) for _NFILE
    fs_mapi.o(i.fdelete) refers to fs_lib.o(i.fs_find_iob) for fs_find_iob
    fs_mapi.o(i.fdelete) refers to fs_lib.o(i.fs_map_drive) for fs_map_drive
    fs_mapi.o(i.fdelete) refers to fs_fat.o(i.fat_delete) for fat_delete
    fs_mapi.o(i.fdelete) refers to file_config.o(i.efs_find) for efs_find
    fs_mapi.o(i.fdelete) refers to fs_lib.o(i.fs_efs_lock) for fs_efs_lock
    fs_mapi.o(i.fdelete) refers to file_config.o(i.efs_delete) for efs_delete
    fs_mapi.o(i.fdelete) refers (Weak) to streamlock.o(.data) for _stream_list_lock
    fs_mapi.o(i.ffind) refers to fs_lib.o(i.fs_find_iob) for fs_find_iob
    fs_mapi.o(i.ffind) refers to fs_lib.o(i.fs_map_drive) for fs_map_drive
    fs_mapi.o(i.ffind) refers to strcmpv7m.o(.text) for strcmp
    fs_mapi.o(i.ffind) refers to fs_lib.o(i.fs_strpos) for fs_strpos
    fs_mapi.o(i.ffind) refers to strlen.o(.text) for strlen
    fs_mapi.o(i.ffind) refers to fs_fat.o(i.fat_ffind) for fat_ffind
    fs_mapi.o(i.ffind) refers to file_config.o(i.efs_ffind) for efs_ffind
    fs_mapi.o(i.ffind) refers to file_config.o(i.efs_fsize) for efs_fsize
    fs_mapi.o(i.ffind) refers (Weak) to streamlock.o(.data) for _stream_list_lock
    fs_mapi.o(i.fformat) refers to fs_lib.o(i.fs_find_iob) for fs_find_iob
    fs_mapi.o(i.fformat) refers to fs_lib.o(i.fs_map_drive) for fs_map_drive
    fs_mapi.o(i.fformat) refers to rt_memclr_w.o(.text) for __aeabi_memclr4
    fs_mapi.o(i.fformat) refers to fs_fat.o(i.fat_format) for fat_format
    fs_mapi.o(i.fformat) refers to file_config.o(i.efs_format) for efs_format
    fs_mapi.o(i.fformat) refers (Weak) to streamlock.o(.data) for _stream_list_lock
    fs_mapi.o(i.fformat) refers to file_config.o(.bss) for _iob
    fs_mapi.o(i.fformat) refers to file_config.o(.constdata) for _NFILE
    fs_mapi.o(i.ffree) refers to fs_lib.o(i.fs_find_iob) for fs_find_iob
    fs_mapi.o(i.ffree) refers to fs_lib.o(i.fs_map_drive) for fs_map_drive
    fs_mapi.o(i.ffree) refers to fs_fat.o(i.fat_free) for fat_free
    fs_mapi.o(i.ffree) refers to file_config.o(i.efs_free) for efs_free
    fs_mapi.o(i.ffree) refers (Weak) to streamlock.o(.data) for _stream_list_lock
    fs_mapi.o(i.finfo) refers to fs_lib.o(i.fs_find_iob) for fs_find_iob
    fs_mapi.o(i.finfo) refers to fs_lib.o(i.fs_map_drive) for fs_map_drive
    fs_mapi.o(i.finfo) refers (Weak) to streamlock.o(.data) for _stream_list_lock
    fs_mapi.o(i.finit) refers to fs_mapi.o(i.fs_cfg_drv) for fs_cfg_drv
    fs_mapi.o(i.finit) refers to fs_lib.o(i.fs_map_drive) for fs_map_drive
    fs_mapi.o(i.finit) refers to fs_mapi.o(i.init_drv) for init_drv
    fs_mapi.o(i.finit) refers (Weak) to streamlock.o(.data) for _stream_list_lock
    fs_mapi.o(i.finit) refers to file_config.o(.constdata) for fs_DevPool
    fs_mapi.o(i.frename) refers to fs_lib.o(i.fs_find_iob) for fs_find_iob
    fs_mapi.o(i.frename) refers to fs_lib.o(i.fs_map_drive) for fs_map_drive
    fs_mapi.o(i.frename) refers to fs_fat.o(i.fat_rename) for fat_rename
    fs_mapi.o(i.frename) refers to file_config.o(i.efs_find) for efs_find
    fs_mapi.o(i.frename) refers to fs_lib.o(i.fs_efs_lock) for fs_efs_lock
    fs_mapi.o(i.frename) refers to file_config.o(i.efs_rename) for efs_rename
    fs_mapi.o(i.frename) refers (Weak) to streamlock.o(.data) for _stream_list_lock
    fs_mapi.o(i.fs_cfg_drv) refers to file_config.o(i.fs_config) for fs_config
    fs_mapi.o(i.fs_cfg_drv) refers to file_config.o(i.elink_init) for elink_init
    fs_mapi.o(i.fs_cfg_drv) refers to fs_mapi.o(.data) for .data
    fs_mapi.o(i.fs_cfg_drv) refers to file_config.o(.constdata) for fs_DevPool
    fs_mapi.o(i.fs_cfg_drv) refers to file_config.o(.bss) for _iob
    fs_mapi.o(i.funinit) refers to fs_lib.o(i.fs_map_drive) for fs_map_drive
    fs_mapi.o(i.funinit) refers to fs_mapi.o(i.uninit_drv) for uninit_drv
    fs_mapi.o(i.funinit) refers (Weak) to streamlock.o(.data) for _stream_list_lock
    fs_mapi.o(i.funinit) refers to fs_mapi.o(.data) for .data
    fs_mapi.o(i.funinit) refers to file_config.o(.constdata) for fs_DevPool
    fs_mapi.o(i.fvol) refers to fs_lib.o(i.fs_find_iob) for fs_find_iob
    fs_mapi.o(i.fvol) refers to fs_lib.o(i.fs_map_drive) for fs_map_drive
    fs_mapi.o(i.fvol) refers to fs_fat.o(i.fat_read_label) for fat_read_label
    fs_mapi.o(i.fvol) refers (Weak) to streamlock.o(.data) for _stream_list_lock
    fs_mapi.o(i.init_drv) refers to fs_fat.o(i.fat_init) for fat_init
    fs_mapi.o(i.init_drv) refers to file_config.o(i.fat_jour_init) for fat_jour_init
    fs_mmc.o(i.mmc_DevCtrl) refers to fs_mmc.o(i.mmc_read_cid) for mmc_read_cid
    fs_mmc.o(i.mmc_Init) refers to fs_mmc.o(i.mmc_command) for mmc_command
    fs_mmc.o(i.mmc_Init) refers to fs_mmc.o(i.mmc_read_csd) for mmc_read_csd
    fs_mmc.o(i.mmc_Init) refers to fs_mmc.o(i.mmc_read_cid) for mmc_read_cid
    fs_mmc.o(i.mmc_ReadInfo) refers to fs_mmc.o(i.mmc_read_cid) for mmc_read_cid
    fs_mmc.o(i.mmc_ReadInfo) refers to fs_mmc.o(i.mmc_read_csd) for mmc_read_csd
    fs_mmc.o(i.mmc_ReadSector) refers to fs_mmc.o(i.mmc_read_block) for mmc_read_block
    fs_mmc.o(i.mmc_ReadSector) refers to fs_mmc.o(i.mmc_command) for mmc_command
    fs_mmc.o(i.mmc_WriteSector) refers to fs_mmc.o(i.mmc_write_block) for mmc_write_block
    fs_mmc.o(i.mmc_read_block) refers to fs_mmc.o(i.mmc_command) for mmc_command
    fs_mmc.o(i.mmc_read_cid) refers to fs_mmc.o(i.mmc_read_info) for mmc_read_info
    fs_mmc.o(i.mmc_read_cid) refers to fs_mmc.o(i.mmc_fill_cid) for mmc_fill_cid
    fs_mmc.o(i.mmc_read_csd) refers to fs_mmc.o(i.mmc_read_info) for mmc_read_info
    fs_mmc.o(i.mmc_read_csd) refers to fs_mmc.o(.constdata) for .constdata
    fs_mmc.o(i.mmc_read_info) refers to fs_mmc.o(i.mmc_command) for mmc_command
    fs_mmc.o(i.mmc_write_block) refers to fs_mmc.o(i.mmc_command) for mmc_command
    at_ip.o(i.ip_chk_frame) refers to at_lib.o(i.mem_comp) for mem_comp
    at_ip.o(i.ip_chk_frame) refers to net_config.o(i.igmp_is_member) for igmp_is_member
    at_ip.o(i.ip_chk_frame) refers to at_ethernet.o(i.eth_chk_adr) for eth_chk_adr
    at_ip.o(i.ip_chk_frame) refers to at_ip.o(i.ip_get_chksum) for ip_get_chksum
    at_ip.o(i.ip_chk_frame) refers to at_system.o(.bss) for localm
    at_ip.o(i.ip_chk_frame) refers to at_ip.o(.constdata) for .constdata
    at_ip.o(i.ip_get_chksum) refers to at_lib.o(i.calc_chksum16be) for calc_chksum16be
    at_ip.o(i.ip_get_locadr) refers to at_lib.o(i.is_subnet) for is_subnet
    at_ip.o(i.ip_get_locadr) refers to at_lib.o(i.mem_comp) for mem_comp
    at_ip.o(i.ip_get_locadr) refers to at_lib.o(i.mem_test) for mem_test
    at_ip.o(i.ip_get_locadr) refers to at_ip.o(.data) for .data
    at_ip.o(i.ip_get_locadr) refers to net_config.o(.constdata) for sys_config
    at_ip.o(i.ip_get_locadr) refers to at_system.o(.bss) for localm
    at_ip.o(i.ip_get_locadr) refers to at_ip.o(.constdata) for .constdata
    at_ip.o(i.ip_init) refers to at_ip.o(.data) for .data
    at_ip.o(i.ip_run_local) refers to at_ip.o(i.ip_chk_frame) for ip_chk_frame
    at_ip.o(i.ip_run_local) refers to at_icmp.o(i.icmp_process) for icmp_process
    at_ip.o(i.ip_run_local) refers to at_udp.o(i.udp_process) for udp_process
    at_ip.o(i.ip_run_local) refers to at_tcp.o(i.tcp_process) for tcp_process
    at_ip.o(i.ip_run_local) refers to at_mem.o(i.free_mem) for free_mem
    at_ip.o(i.ip_run_local) refers to at_ip.o(.data) for .data
    at_ip.o(i.ip_run_local) refers to at_system.o(.bss) for sys_control
    at_ip.o(i.ip_send_frame) refers to at_ip.o(i.ip_get_locadr) for ip_get_locadr
    at_ip.o(i.ip_send_frame) refers to at_lib.o(i.mem_copy) for mem_copy
    at_ip.o(i.ip_send_frame) refers to at_ip.o(i.ip_get_chksum) for ip_get_chksum
    at_ip.o(i.ip_send_frame) refers to at_ethernet.o(i.eth_send_frame) for eth_send_frame
    at_ip.o(i.ip_send_frame) refers to net_config.o(i.ppp_send_frame) for ppp_send_frame
    at_ip.o(i.ip_send_frame) refers to net_config.o(i.slip_send_frame) for slip_send_frame
    at_ip.o(i.ip_send_frame) refers to at_mem.o(i.alloc_mem) for alloc_mem
    at_ip.o(i.ip_send_frame) refers to at_system.o(.bss) for sys_control
    at_ip.o(i.ip_send_frame) refers to at_ip.o(.data) for .data
    at_icmp.o(i.icmp_init) refers to at_icmp.o(.bss) for .bss
    at_icmp.o(i.icmp_ping) refers to at_lib.o(i.mem_test) for mem_test
    at_icmp.o(i.icmp_ping) refers to at_lib.o(i.mem_copy) for mem_copy
    at_icmp.o(i.icmp_ping) refers to at_system.o(i.get_rnd32) for get_rnd32
    at_icmp.o(i.icmp_ping) refers to at_icmp.o(i.icmp_send_message) for icmp_send_message
    at_icmp.o(i.icmp_ping) refers to at_icmp.o(.bss) for .bss
    at_icmp.o(i.icmp_ping) refers to net_config.o(.constdata) for sys_config
    at_icmp.o(i.icmp_process) refers to at_lib.o(i.calc_chksum16be) for calc_chksum16be
    at_icmp.o(i.icmp_process) refers to at_mem.o(i.alloc_mem) for alloc_mem
    at_icmp.o(i.icmp_process) refers to at_lib.o(i.mem_copy) for mem_copy
    at_icmp.o(i.icmp_process) refers to at_ip.o(i.ip_send_frame) for ip_send_frame
    at_icmp.o(i.icmp_process) refers to at_mem.o(i.free_mem) for free_mem
    at_icmp.o(i.icmp_process) refers to at_lib.o(i.mem_comp) for mem_comp
    at_icmp.o(i.icmp_process) refers to at_icmp.o(.bss) for .bss
    at_icmp.o(i.icmp_run_engine) refers to at_icmp.o(i.icmp_send_message) for icmp_send_message
    at_icmp.o(i.icmp_run_engine) refers to at_icmp.o(.bss) for .bss
    at_icmp.o(i.icmp_run_engine) refers to at_system.o(.bss) for sys_control
    at_icmp.o(i.icmp_run_engine) refers to net_config.o(.constdata) for sys_config
    at_icmp.o(i.icmp_send_message) refers to at_mem.o(i.alloc_mem) for alloc_mem
    at_icmp.o(i.icmp_send_message) refers to at_lib.o(i.calc_chksum16be) for calc_chksum16be
    at_icmp.o(i.icmp_send_message) refers to at_ip.o(i.ip_send_frame) for ip_send_frame
    at_icmp.o(i.icmp_send_message) refers to at_mem.o(i.free_mem) for free_mem
    at_icmp.o(i.icmp_send_message) refers to at_icmp.o(.bss) for .bss
    at_tcp.o(i.tcp_abort) refers to at_tcp.o(i.tcp_transit) for tcp_transit
    at_tcp.o(i.tcp_abort) refers to at_tcp.o(i.tcp_send_ctrl) for tcp_send_ctrl
    at_tcp.o(i.tcp_abort) refers to net_config.o(.constdata) for tcp_config
    at_tcp.o(i.tcp_check_send) refers to net_config.o(.constdata) for tcp_config
    at_tcp.o(i.tcp_close) refers to at_tcp.o(i.tcp_transit) for tcp_transit
    at_tcp.o(i.tcp_close) refers to at_tcp.o(i.tcp_send_ctrl) for tcp_send_ctrl
    at_tcp.o(i.tcp_close) refers to net_config.o(.constdata) for tcp_config
    at_tcp.o(i.tcp_connect) refers to at_lib.o(i.nrd_u32be) for nrd_u32be
    at_tcp.o(i.tcp_connect) refers to at_tcp.o(i.tcp_get_free_port) for tcp_get_free_port
    at_tcp.o(i.tcp_connect) refers to at_lib.o(i.mem_copy) for mem_copy
    at_tcp.o(i.tcp_connect) refers to at_system.o(i.get_rnd32) for get_rnd32
    at_tcp.o(i.tcp_connect) refers to at_tcp.o(i.tcp_send_ctrl) for tcp_send_ctrl
    at_tcp.o(i.tcp_connect) refers to at_tcp.o(i.tcp_transit) for tcp_transit
    at_tcp.o(i.tcp_connect) refers to net_config.o(.constdata) for tcp_config
    at_tcp.o(i.tcp_get_adr) refers to net_config.o(.constdata) for tcp_config
    at_tcp.o(i.tcp_get_buf) refers to at_mem.o(i.alloc_mem) for alloc_mem
    at_tcp.o(i.tcp_get_free_port) refers to at_tcp.o(.data) for .data
    at_tcp.o(i.tcp_get_free_port) refers to net_config.o(.constdata) for tcp_config
    at_tcp.o(i.tcp_get_socket) refers to net_config.o(i.sys_error) for sys_error
    at_tcp.o(i.tcp_get_socket) refers to net_config.o(.constdata) for tcp_config
    at_tcp.o(i.tcp_get_state) refers to net_config.o(.constdata) for tcp_config
    at_tcp.o(i.tcp_init) refers to at_lib.o(i.mem_set) for mem_set
    at_tcp.o(i.tcp_init) refers to net_config.o(.constdata) for tcp_config
    at_tcp.o(i.tcp_ioctl_socket) refers to net_config.o(.constdata) for tcp_config
    at_tcp.o(i.tcp_listen) refers to at_lib.o(i.mem_set) for mem_set
    at_tcp.o(i.tcp_listen) refers to net_config.o(.constdata) for tcp_config
    at_tcp.o(i.tcp_map_socket) refers to at_lib.o(i.mem_comp) for mem_comp
    at_tcp.o(i.tcp_map_socket) refers to at_lib.o(i.mem_copy) for mem_copy
    at_tcp.o(i.tcp_map_socket) refers to net_config.o(.constdata) for tcp_config
    at_tcp.o(i.tcp_max_dsize) refers to net_config.o(.constdata) for tcp_config
    at_tcp.o(i.tcp_no_ack) refers to at_tcp.o(.data) for .data
    at_tcp.o(i.tcp_poll_sockets) refers to at_tcp.o(i.tcp_send_ctrl) for tcp_send_ctrl
    at_tcp.o(i.tcp_poll_sockets) refers to at_tcp.o(i.tcp_que_resend) for tcp_que_resend
    at_tcp.o(i.tcp_poll_sockets) refers to at_mem.o(i.avail_mem) for avail_mem
    at_tcp.o(i.tcp_poll_sockets) refers to at_tcp.o(i.tcp_que_init) for tcp_que_init
    at_tcp.o(i.tcp_poll_sockets) refers to at_tcp.o(i.tcp_que_free) for tcp_que_free
    at_tcp.o(i.tcp_poll_sockets) refers to at_tcp.o(i.tcp_transit) for tcp_transit
    at_tcp.o(i.tcp_poll_sockets) refers to at_system.o(.bss) for sys_control
    at_tcp.o(i.tcp_poll_sockets) refers to net_config.o(.constdata) for tcp_config
    at_tcp.o(i.tcp_poll_sockets) refers to at_tcp.o(.data) for .data
    at_tcp.o(i.tcp_proc_acknr) refers to at_mem.o(i.free_mem) for free_mem
    at_tcp.o(i.tcp_proc_acknr) refers to at_system.o(.bss) for sys_control
    at_tcp.o(i.tcp_proc_dupack) refers to at_tcp.o(i.tcp_que_init) for tcp_que_init
    at_tcp.o(i.tcp_process) refers to at_tcp.o(i.tcp_map_socket) for tcp_map_socket
    at_tcp.o(i.tcp_process) refers to at_lib.o(i.chksum16_buf) for chksum16_buf
    at_tcp.o(i.tcp_process) refers to at_lib.o(i.chksum16_val) for chksum16_val
    at_tcp.o(i.tcp_process) refers to at_lib.o(i.nrd_u32be) for nrd_u32be
    at_tcp.o(i.tcp_process) refers to at_tcp.o(i.tcp_send_reset) for tcp_send_reset
    at_tcp.o(i.tcp_process) refers to at_tcp.o(i.tcp_proc_dupack) for tcp_proc_dupack
    at_tcp.o(i.tcp_process) refers to at_tcp.o(i.tcp_proc_acknr) for tcp_proc_acknr
    at_tcp.o(i.tcp_process) refers to at_tcp.o(i.tcp_transit) for tcp_transit
    at_tcp.o(i.tcp_process) refers to at_tcp.o(i.tcp_send_ctrl) for tcp_send_ctrl
    at_tcp.o(i.tcp_process) refers to at_tcp.o(i.tcp_parse_opt) for tcp_parse_opt
    at_tcp.o(i.tcp_process) refers to at_system.o(i.get_rnd32) for get_rnd32
    at_tcp.o(i.tcp_process) refers to at_tcp.o(i.tcp_set_cwnd) for tcp_set_cwnd
    at_tcp.o(i.tcp_process) refers to net_config.o(i.sys_error) for sys_error
    at_tcp.o(i.tcp_process) refers to at_tcp.o(.data) for .data
    at_tcp.o(i.tcp_process) refers to net_config.o(.constdata) for sys_config
    at_tcp.o(i.tcp_que_free) refers to at_mem.o(i.free_mem) for free_mem
    at_tcp.o(i.tcp_que_resend) refers to at_tcp.o(i.tcp_send_ctrl) for tcp_send_ctrl
    at_tcp.o(i.tcp_que_resend) refers to at_tcp.o(i.tcp_send_data) for tcp_send_data
    at_tcp.o(i.tcp_que_resend) refers to net_config.o(.constdata) for tcp_config
    at_tcp.o(i.tcp_release_socket) refers to at_lib.o(i.mem_set) for mem_set
    at_tcp.o(i.tcp_release_socket) refers to net_config.o(.constdata) for tcp_config
    at_tcp.o(i.tcp_reset_tout) refers to net_config.o(.constdata) for tcp_config
    at_tcp.o(i.tcp_reset_window) refers to at_tcp.o(i.tcp_send_ctrl) for tcp_send_ctrl
    at_tcp.o(i.tcp_reset_window) refers to net_config.o(.constdata) for tcp_config
    at_tcp.o(i.tcp_send) refers to at_mem.o(i.resize_mem) for resize_mem
    at_tcp.o(i.tcp_send) refers to at_tcp.o(i.tcp_send_data) for tcp_send_data
    at_tcp.o(i.tcp_send) refers to at_mem.o(i.free_mem) for free_mem
    at_tcp.o(i.tcp_send) refers to net_config.o(.constdata) for tcp_config
    at_tcp.o(i.tcp_send) refers to at_system.o(.bss) for sys_control
    at_tcp.o(i.tcp_send_ctrl) refers to at_mem.o(i.alloc_mem) for alloc_mem
    at_tcp.o(i.tcp_send_ctrl) refers to at_tcp.o(i.tcp_write) for tcp_write
    at_tcp.o(i.tcp_send_ctrl) refers to at_mem.o(i.free_mem) for free_mem
    at_tcp.o(i.tcp_send_data) refers to at_tcp.o(i.tcp_write) for tcp_write
    at_tcp.o(i.tcp_send_reset) refers to at_mem.o(i.alloc_mem) for alloc_mem
    at_tcp.o(i.tcp_send_reset) refers to at_lib.o(i.nrd_u32be) for nrd_u32be
    at_tcp.o(i.tcp_send_reset) refers to at_tcp.o(i.tcp_write) for tcp_write
    at_tcp.o(i.tcp_send_reset) refers to at_mem.o(i.free_mem) for free_mem
    at_tcp.o(i.tcp_transit) refers to at_tcp.o(i.tcp_que_free) for tcp_que_free
    at_tcp.o(i.tcp_transit) refers to net_config.o(.constdata) for tcp_config
    at_tcp.o(i.tcp_write) refers to at_lib.o(i.nwr_u32be) for nwr_u32be
    at_tcp.o(i.tcp_write) refers to at_ip.o(i.ip_get_locadr) for ip_get_locadr
    at_tcp.o(i.tcp_write) refers to at_lib.o(i.chksum16_buf) for chksum16_buf
    at_tcp.o(i.tcp_write) refers to at_lib.o(i.chksum16_val) for chksum16_val
    at_tcp.o(i.tcp_write) refers to at_ip.o(i.ip_send_frame) for ip_send_frame
    at_tcp.o(i.tcp_write) refers to net_config.o(.constdata) for tcp_config
    at_udp.o(i.udp_close) refers to net_config.o(.constdata) for udp_config
    at_udp.o(i.udp_free_buf) refers to at_mem.o(i.free_mem) for free_mem
    at_udp.o(i.udp_get_buf) refers to at_mem.o(i.alloc_mem) for alloc_mem
    at_udp.o(i.udp_get_socket) refers to net_config.o(i.sys_error) for sys_error
    at_udp.o(i.udp_get_socket) refers to net_config.o(.constdata) for udp_config
    at_udp.o(i.udp_init) refers to at_lib.o(i.mem_set) for mem_set
    at_udp.o(i.udp_init) refers to net_config.o(.constdata) for udp_config
    at_udp.o(i.udp_keep_buf) refers to net_config.o(.constdata) for udp_config
    at_udp.o(i.udp_mcast_ttl) refers to net_config.o(.constdata) for udp_config
    at_udp.o(i.udp_open) refers to at_udp.o(i.udp_port_in_use) for udp_port_in_use
    at_udp.o(i.udp_open) refers to net_config.o(.constdata) for udp_config
    at_udp.o(i.udp_open) refers to at_udp.o(.data) for .data
    at_udp.o(i.udp_port_in_use) refers to net_config.o(.constdata) for udp_config
    at_udp.o(i.udp_process) refers to at_lib.o(i.chksum16_buf) for chksum16_buf
    at_udp.o(i.udp_process) refers to at_lib.o(i.chksum16_val) for chksum16_val
    at_udp.o(i.udp_process) refers to net_config.o(.constdata) for udp_config
    at_udp.o(i.udp_release_socket) refers to at_lib.o(i.mem_set) for mem_set
    at_udp.o(i.udp_release_socket) refers to net_config.o(.constdata) for udp_config
    at_udp.o(i.udp_send) refers to at_mem.o(i.free_mem) for free_mem
    at_udp.o(i.udp_send) refers to at_lib.o(i.nrd_u32be) for nrd_u32be
    at_udp.o(i.udp_send) refers to at_ip.o(i.ip_get_locadr) for ip_get_locadr
    at_udp.o(i.udp_send) refers to at_lib.o(i.chksum16_buf) for chksum16_buf
    at_udp.o(i.udp_send) refers to at_lib.o(i.chksum16_val) for chksum16_val
    at_udp.o(i.udp_send) refers to at_ip.o(i.ip_send_frame) for ip_send_frame
    at_udp.o(i.udp_send) refers to net_config.o(.constdata) for udp_config
    at_http.o(i.add_server_id) refers to _printf_percent.o(.ARM.Collect$$_printf_percent$$00000000) for _printf_percent
    at_http.o(i.add_server_id) refers to _printf_s.o(.ARM.Collect$$_printf_percent$$00000014) for _printf_s
    at_http.o(i.add_server_id) refers to _printf_str.o(.text) for _printf_str
    at_http.o(i.add_server_id) refers to __2sprintf.o(.text) for __2sprintf
    at_http.o(i.add_server_id) refers to net_config.o(.constdata) for http_config
    at_http.o(i.chk_post_req) refers to at_http.o(i.cmp_header) for cmp_header
    at_http.o(i.chk_post_req) refers to at_lib.o(i.str_scomp) for str_scomp
    at_http.o(i.chk_post_req) refers to at_http.o(i.get_next_par) for get_next_par
    at_http.o(i.chk_post_req) refers to at_mem.o(i.alloc_mem) for alloc_mem
    at_http.o(i.chk_post_req) refers to at_http.o(i.http_strcpy) for http_strcpy
    at_http.o(i.chk_post_req) refers to atoi.o(.text) for atoi
    at_http.o(i.chk_post_req) refers to at_http.o(i.get_next_field) for get_next_field
    at_http.o(i.chk_post_req) refers to at_http.o(.data) for .data
    at_http.o(i.get_file_type) refers to at_http.o(i.cmp_fname_ext) for cmp_fname_ext
    at_http.o(i.get_file_type) refers to at_http.o(.constdata) for .constdata
    at_http.o(i.http_add_header) refers to _printf_percent.o(.ARM.Collect$$_printf_percent$$00000000) for _printf_percent
    at_http.o(i.http_add_header) refers to _printf_s.o(.ARM.Collect$$_printf_percent$$00000014) for _printf_s
    at_http.o(i.http_add_header) refers to _printf_str.o(.text) for _printf_str
    at_http.o(i.http_add_header) refers to at_http.o(i.cgx_content_type) for cgx_content_type
    at_http.o(i.http_add_header) refers to at_lib.o(i.str_copy) for str_copy
    at_http.o(i.http_add_header) refers to at_http.o(i.add_server_id) for add_server_id
    at_http.o(i.http_add_header) refers to __2sprintf.o(.text) for __2sprintf
    at_http.o(i.http_add_header) refers to at_lib.o(i.str_scomp) for str_scomp
    at_http.o(i.http_add_header) refers to at_http.o(i.http_encoding) for http_encoding
    at_http.o(i.http_add_header) refers to at_http.o(i.utc_to_http) for utc_to_http
    at_http.o(i.http_date) refers to at_http.o(.constdata) for .constdata
    at_http.o(i.http_error_msg) refers to _printf_percent.o(.ARM.Collect$$_printf_percent$$00000000) for _printf_percent
    at_http.o(i.http_error_msg) refers to _printf_s.o(.ARM.Collect$$_printf_percent$$00000014) for _printf_s
    at_http.o(i.http_error_msg) refers to _printf_str.o(.text) for _printf_str
    at_http.o(i.http_error_msg) refers to __2sprintf.o(.text) for __2sprintf
    at_http.o(i.http_error_msg) refers to at_http.o(i.add_server_id) for add_server_id
    at_http.o(i.http_error_msg) refers to at_lib.o(i.str_copy) for str_copy
    at_http.o(i.http_error_msg) refers to net_config.o(.constdata) for http_config
    at_http.o(i.http_error_msg) refers to http_err.o(.constdata) for http_err_head
    at_http.o(i.http_error_msg) refers to http_err.o(.constdata) for http_err_501
    at_http.o(i.http_error_msg) refers to http_err.o(.constdata) for http_err_foot
    at_http.o(i.http_error_msg) refers to http_err.o(.constdata) for http_err_401
    at_http.o(i.http_error_msg) refers to http_err.o(.constdata) for http_err_403
    at_http.o(i.http_error_msg) refers to http_err.o(.constdata) for http_err_404
    at_http.o(i.http_get_content_type) refers to net_config.o(.constdata) for http_config
    at_http.o(i.http_get_content_type) refers to at_http.o(.data) for .data
    at_http.o(i.http_get_info) refers to at_tcp.o(i.tcp_get_adr) for tcp_get_adr
    at_http.o(i.http_get_info) refers to at_lib.o(i.mem_copy) for mem_copy
    at_http.o(i.http_get_info) refers to at_ethernet.o(i.eth_get_adr) for eth_get_adr
    at_http.o(i.http_get_info) refers to at_lib.o(i.mem_set) for mem_set
    at_http.o(i.http_get_info) refers to net_config.o(.constdata) for http_config
    at_http.o(i.http_get_info) refers to at_http.o(.data) for .data
    at_http.o(i.http_get_lang) refers to net_config.o(.constdata) for http_config
    at_http.o(i.http_get_lang) refers to at_http.o(.data) for .data
    at_http.o(i.http_get_session) refers to at_http.o(.data) for .data
    at_http.o(i.http_get_user_id) refers to net_config.o(.constdata) for http_config
    at_http.o(i.http_get_user_id) refers to at_http.o(.data) for .data
    at_http.o(i.http_get_var) refers to at_http.o(i.hex2byte) for hex2byte
    at_http.o(i.http_get_var) refers to at_http.o(.data) for .data
    at_http.o(i.http_init) refers to at_tcp.o(i.tcp_get_socket) for tcp_get_socket
    at_http.o(i.http_init) refers to at_tcp.o(i.tcp_listen) for tcp_listen
    at_http.o(i.http_init) refers to net_config.o(.constdata) for http_config
    at_http.o(i.http_init) refers to at_http.o(i.http_listener) for http_listener
    at_http.o(i.http_kill_session) refers to at_http_uif.o(i.http_fclose) for http_fclose
    at_http.o(i.http_kill_session) refers to http_cgi.o(i.cgi_process_data) for cgi_process_data
    at_http.o(i.http_kill_session) refers to at_mem.o(i.free_mem) for free_mem
    at_http.o(i.http_listener) refers to at_http.o(i.http_accept_host) for http_accept_host
    at_http.o(i.http_listener) refers to at_http.o(i.http_kill_session) for http_kill_session
    at_http.o(i.http_listener) refers to at_lib.o(i.str_scomp) for str_scomp
    at_http.o(i.http_listener) refers to at_http.o(i.proc_req_line) for proc_req_line
    at_http.o(i.http_listener) refers to at_http.o(i.get_file_type) for get_file_type
    at_http.o(i.http_listener) refers to at_http.o(i.http_proc_header) for http_proc_header
    at_http.o(i.http_listener) refers to at_http.o(i.http_open_file) for http_open_file
    at_http.o(i.http_listener) refers to http_cgi.o(i.cgi_process_var) for cgi_process_var
    at_http.o(i.http_listener) refers to at_http.o(i.chk_post_req) for chk_post_req
    at_http.o(i.http_listener) refers to at_http.o(i.http_proc_post) for http_proc_post
    at_http.o(i.http_listener) refers to at_mem.o(i.alloc_mem) for alloc_mem
    at_http.o(i.http_listener) refers to at_http.o(i.read_script_line) for read_script_line
    at_http.o(i.http_listener) refers to at_http.o(i.http_proc_multipart) for http_proc_multipart
    at_http.o(i.http_listener) refers to net_config.o(.constdata) for http_config
    at_http.o(i.http_listener) refers to at_http.o(.data) for .data
    at_http.o(i.http_open_file) refers to at_http.o(i.http_file_access) for http_file_access
    at_http.o(i.http_open_file) refers to at_http_uif.o(i.http_fopen) for http_fopen
    at_http.o(i.http_open_file) refers to at_http_uif.o(i.http_finfo) for http_finfo
    at_http.o(i.http_open_file) refers to at_lib.o(i.str_crc32) for str_crc32
    at_http.o(i.http_open_file) refers to web.o(.constdata) for FileTab
    at_http.o(i.http_proc_header) refers to at_http.o(i.cmp_header) for cmp_header
    at_http.o(i.http_proc_header) refers to at_lib.o(i.b64_to_asc) for b64_to_asc
    at_http.o(i.http_proc_header) refers to at_lib.o(i.str_pos) for str_pos
    at_http.o(i.http_proc_header) refers to strcmpv7m.o(.text) for strcmp
    at_http.o(i.http_proc_header) refers to at_http.o(i.http_check_account) for http_check_account
    at_http.o(i.http_proc_header) refers to at_http.o(i.http_to_utc) for http_to_utc
    at_http.o(i.http_proc_header) refers to at_http.o(i.get_next_field) for get_next_field
    at_http.o(i.http_proc_header) refers to net_config.o(.constdata) for http_config
    at_http.o(i.http_proc_header) refers to at_http.o(.data) for .data
    at_http.o(i.http_proc_multipart) refers to at_http.o(i.search_delim) for search_delim
    at_http.o(i.http_proc_multipart) refers to at_http.o(i.cmp_header) for cmp_header
    at_http.o(i.http_proc_multipart) refers to at_lib.o(i.str_scomp) for str_scomp
    at_http.o(i.http_proc_multipart) refers to at_http.o(i.get_next_par) for get_next_par
    at_http.o(i.http_proc_multipart) refers to at_http.o(i.get_next_field) for get_next_field
    at_http.o(i.http_proc_multipart) refers to http_cgi.o(i.cgi_process_data) for cgi_process_data
    at_http.o(i.http_proc_multipart) refers to at_http.o(.data) for .data
    at_http.o(i.http_proc_post) refers to http_cgi.o(i.cgi_process_data) for cgi_process_data
    at_http.o(i.http_proc_post) refers to at_mem.o(i.alloc_mem) for alloc_mem
    at_http.o(i.http_proc_post) refers to at_lib.o(i.mem_copy) for mem_copy
    at_http.o(i.http_proc_post) refers to at_mem.o(i.free_mem) for free_mem
    at_http.o(i.http_proc_post) refers to at_http.o(.data) for .data
    at_http.o(i.http_proc_post) refers to net_config.o(.constdata) for sys_config
    at_http.o(i.http_run_server) refers to at_tcp.o(i.tcp_get_state) for tcp_get_state
    at_http.o(i.http_run_server) refers to at_tcp.o(i.tcp_listen) for tcp_listen
    at_http.o(i.http_run_server) refers to at_mem.o(i.avail_mem) for avail_mem
    at_http.o(i.http_run_server) refers to at_http_uif.o(i.http_fclose) for http_fclose
    at_http.o(i.http_run_server) refers to at_http.o(i.read_script_line) for read_script_line
    at_http.o(i.http_run_server) refers to at_tcp.o(i.tcp_close) for tcp_close
    at_http.o(i.http_run_server) refers to at_tcp.o(i.tcp_max_dsize) for tcp_max_dsize
    at_http.o(i.http_run_server) refers to at_tcp.o(i.tcp_get_buf) for tcp_get_buf
    at_http.o(i.http_run_server) refers to at_http.o(i.http_add_header) for http_add_header
    at_http.o(i.http_run_server) refers to at_http_uif.o(i.http_fread) for http_fread
    at_http.o(i.http_run_server) refers to at_lib.o(i.mem_copy) for mem_copy
    at_http.o(i.http_run_server) refers to at_tcp.o(i.tcp_send) for tcp_send
    at_http.o(i.http_run_server) refers to at_tcp.o(i.tcp_abort) for tcp_abort
    at_http.o(i.http_run_server) refers to at_http.o(i.http_kill_session) for http_kill_session
    at_http.o(i.http_run_server) refers to at_http.o(i.http_strcpy) for http_strcpy
    at_http.o(i.http_run_server) refers to http_cgi.o(i.cgi_func) for cgi_func
    at_http.o(i.http_run_server) refers to at_http.o(i.http_open_file) for http_open_file
    at_http.o(i.http_run_server) refers to at_http.o(i.http_error_msg) for http_error_msg
    at_http.o(i.http_run_server) refers to at_system.o(.bss) for sys_control
    at_http.o(i.http_run_server) refers to net_config.o(.constdata) for http_config
    at_http.o(i.http_run_server) refers to at_http.o(.data) for .data
    at_http.o(i.http_to_utc) refers to atoi.o(.text) for atoi
    at_http.o(i.http_to_utc) refers to at_lib.o(i.str_scomp) for str_scomp
    at_http.o(i.http_to_utc) refers to at_http.o(.constdata) for .constdata
    at_http.o(i.proc_req_line) refers to at_http.o(.data) for .data
    at_http.o(i.read_script_line) refers to at_http_uif.o(i.http_fgets) for http_fgets
    at_http.o(i.read_script_line) refers to strlen.o(.text) for strlen
    at_http.o(i.search_delim) refers to at_lib.o(i.str_scomp) for str_scomp
    at_http.o(i.utc_to_http) refers to _printf_pad.o(.text) for _printf_pre_padding
    at_http.o(i.utc_to_http) refers to _printf_percent.o(.ARM.Collect$$_printf_percent$$00000000) for _printf_percent
    at_http.o(i.utc_to_http) refers to _printf_d.o(.ARM.Collect$$_printf_percent$$00000009) for _printf_d
    at_http.o(i.utc_to_http) refers to _printf_s.o(.ARM.Collect$$_printf_percent$$00000014) for _printf_s
    at_http.o(i.utc_to_http) refers to _printf_dec.o(.text) for _printf_int_dec
    at_http.o(i.utc_to_http) refers to _printf_str.o(.text) for _printf_str
    at_http.o(i.utc_to_http) refers to __2sprintf.o(.text) for __2sprintf
    at_http.o(i.utc_to_http) refers to at_http.o(.constdata) for .constdata
    at_nbns.o(i.nbns_init) refers to at_udp.o(i.udp_get_socket) for udp_get_socket
    at_nbns.o(i.nbns_init) refers to at_udp.o(i.udp_open) for udp_open
    at_nbns.o(i.nbns_init) refers to at_nbns.o(i.nbns_listener) for nbns_listener
    at_nbns.o(i.nbns_init) refers to at_nbns.o(.data) for .data
    at_nbns.o(i.nbns_listener) refers to at_mem.o(i.alloc_mem) for alloc_mem
    at_nbns.o(i.nbns_listener) refers to at_lib.o(i.str_up_case) for str_up_case
    at_nbns.o(i.nbns_listener) refers to at_lib.o(i.mem_comp) for mem_comp
    at_nbns.o(i.nbns_listener) refers to at_udp.o(i.udp_get_buf) for udp_get_buf
    at_nbns.o(i.nbns_listener) refers to at_lib.o(i.mem_copy) for mem_copy
    at_nbns.o(i.nbns_listener) refers to at_udp.o(i.udp_send) for udp_send
    at_nbns.o(i.nbns_listener) refers to at_mem.o(i.free_mem) for free_mem
    at_nbns.o(i.nbns_listener) refers to at_nbns.o(.data) for .data
    at_nbns.o(i.nbns_listener) refers to net_config.o(.constdata) for sys_config
    at_nbns.o(i.nbns_listener) refers to at_nbns.o(.constdata) for .constdata
    at_nbns.o(i.nbns_listener) refers to at_system.o(.bss) for localm
    at_dhcp.o(i.dhcp_disable) refers to at_udp.o(i.udp_close) for udp_close
    at_dhcp.o(i.dhcp_disable) refers to at_udp.o(i.udp_release_socket) for udp_release_socket
    at_dhcp.o(i.dhcp_disable) refers to at_lib.o(i.mem_copy) for mem_copy
    at_dhcp.o(i.dhcp_disable) refers to at_arp.o(i.arp_notify) for arp_notify
    at_dhcp.o(i.dhcp_disable) refers to at_dhcp.o(.bss) for .bss
    at_dhcp.o(i.dhcp_disable) refers to at_system.o(.bss) for localm
    at_dhcp.o(i.dhcp_init) refers to at_udp.o(i.udp_get_socket) for udp_get_socket
    at_dhcp.o(i.dhcp_init) refers to at_udp.o(i.udp_open) for udp_open
    at_dhcp.o(i.dhcp_init) refers to at_lib.o(i.mem_copy) for mem_copy
    at_dhcp.o(i.dhcp_init) refers to at_lib.o(i.mem_set) for mem_set
    at_dhcp.o(i.dhcp_init) refers to at_system.o(i.get_rnd32) for get_rnd32
    at_dhcp.o(i.dhcp_init) refers to at_dhcp.o(i.dhcp_listener) for dhcp_listener
    at_dhcp.o(i.dhcp_init) refers to at_dhcp.o(.bss) for .bss
    at_dhcp.o(i.dhcp_init) refers to at_system.o(.bss) for localm
    at_dhcp.o(i.dhcp_listener) refers to at_lib.o(i.nrd_u32be) for nrd_u32be
    at_dhcp.o(i.dhcp_listener) refers to at_lib.o(i.mem_comp) for mem_comp
    at_dhcp.o(i.dhcp_listener) refers to at_lib.o(i.mem_set) for mem_set
    at_dhcp.o(i.dhcp_listener) refers to at_dhcp.o(i.proc_opt_sel) for proc_opt_sel
    at_dhcp.o(i.dhcp_listener) refers to at_lib.o(i.mem_copy) for mem_copy
    at_dhcp.o(i.dhcp_listener) refers to at_dhcp.o(i.dhcp_send_message) for dhcp_send_message
    at_dhcp.o(i.dhcp_listener) refers to at_dhcp.o(i.proc_opt_req) for proc_opt_req
    at_dhcp.o(i.dhcp_listener) refers to at_arp.o(i.arp_notify) for arp_notify
    at_dhcp.o(i.dhcp_listener) refers to at_dhcp.o(i.proc_opt_renew) for proc_opt_renew
    at_dhcp.o(i.dhcp_listener) refers to at_dhcp.o(.bss) for .bss
    at_dhcp.o(i.dhcp_listener) refers to net_config.o(.data) for own_hw_adr
    at_dhcp.o(i.dhcp_listener) refers to at_system.o(.bss) for localm
    at_dhcp.o(i.dhcp_run_client) refers to at_lib.o(i.nrd_u32be) for nrd_u32be
    at_dhcp.o(i.dhcp_run_client) refers to at_lib.o(i.mem_copy) for mem_copy
    at_dhcp.o(i.dhcp_run_client) refers to at_system.o(i.get_rnd32) for get_rnd32
    at_dhcp.o(i.dhcp_run_client) refers to at_dhcp.o(i.dhcp_send_message) for dhcp_send_message
    at_dhcp.o(i.dhcp_run_client) refers to at_arp.o(i.arp_probe) for arp_probe
    at_dhcp.o(i.dhcp_run_client) refers to at_arp.o(i.arp_notify) for arp_notify
    at_dhcp.o(i.dhcp_run_client) refers to at_lib.o(i.mem_set) for mem_set
    at_dhcp.o(i.dhcp_run_client) refers to at_dhcp.o(.bss) for .bss
    at_dhcp.o(i.dhcp_run_client) refers to at_system.o(.bss) for sys_control
    at_dhcp.o(i.dhcp_send_message) refers to at_udp.o(i.udp_get_buf) for udp_get_buf
    at_dhcp.o(i.dhcp_send_message) refers to at_lib.o(i.mem_set) for mem_set
    at_dhcp.o(i.dhcp_send_message) refers to at_lib.o(i.nwr_u32be) for nwr_u32be
    at_dhcp.o(i.dhcp_send_message) refers to at_lib.o(i.nwr_u16be) for nwr_u16be
    at_dhcp.o(i.dhcp_send_message) refers to at_lib.o(i.mem_copy) for mem_copy
    at_dhcp.o(i.dhcp_send_message) refers to at_lib.o(i.str_copy) for str_copy
    at_dhcp.o(i.dhcp_send_message) refers to at_udp.o(i.udp_send) for udp_send
    at_dhcp.o(i.dhcp_send_message) refers to at_dhcp.o(.bss) for .bss
    at_dhcp.o(i.dhcp_send_message) refers to net_config.o(.constdata) for dhcp_config
    at_dhcp.o(i.dhcp_send_message) refers to at_system.o(.bss) for localm
    at_dhcp.o(i.dhcp_send_message) refers to net_config.o(.data) for own_hw_adr
    at_dhcp.o(i.dhcp_send_message) refers to at_ip.o(.constdata) for IP_Broadcast
    at_dhcp.o(i.proc_opt_renew) refers to at_lib.o(i.nrd_u32be) for nrd_u32be
    at_dhcp.o(i.proc_opt_renew) refers to at_dhcp.o(.bss) for .bss
    at_dhcp.o(i.proc_opt_req) refers to at_lib.o(i.mem_copy) for mem_copy
    at_dhcp.o(i.proc_opt_req) refers to at_lib.o(i.mem_set) for mem_set
    at_dhcp.o(i.proc_opt_req) refers to at_lib.o(i.nrd_u32be) for nrd_u32be
    at_dhcp.o(i.proc_opt_req) refers to at_dhcp.o(i.dhcp_cbfunc) for dhcp_cbfunc
    at_dhcp.o(i.proc_opt_req) refers to at_dhcp.o(.bss) for .bss
    at_dhcp.o(i.proc_opt_req) refers to at_system.o(.bss) for localm
    at_dhcp.o(i.proc_opt_sel) refers to at_lib.o(i.mem_copy) for mem_copy
    at_dhcp.o(i.proc_opt_sel) refers to at_dhcp.o(.bss) for .bss
    at_ethernet.o(i.eth_chk_adr) refers to at_lib.o(i.mem_comp) for mem_comp
    at_ethernet.o(i.eth_chk_adr) refers to net_config.o(.data) for own_hw_adr
    at_ethernet.o(i.eth_get_adr) refers to at_arp.o(i.arp_get_hwadr) for arp_get_hwadr
    at_ethernet.o(i.eth_init_link) refers to emac_lpc17xx.o(i.int_disable_eth) for int_disable_eth
    at_ethernet.o(i.eth_init_link) refers to emac_lpc17xx.o(i.init_ethernet) for init_ethernet
    at_ethernet.o(i.eth_init_link) refers to emac_lpc17xx.o(i.int_enable_eth) for int_enable_eth
    at_ethernet.o(i.eth_init_link) refers to at_arp.o(i.arp_init) for arp_init
    at_ethernet.o(i.eth_init_link) refers to at_lib.o(i.mem_crc32) for mem_crc32
    at_ethernet.o(i.eth_init_link) refers to at_ethernet.o(.bss) for .bss
    at_ethernet.o(i.eth_init_link) refers to net_config.o(.data) for own_hw_adr
    at_ethernet.o(i.eth_init_link) refers to at_system.o(.bss) for sys_control
    at_ethernet.o(i.eth_run_link) refers to at_arp.o(i.arp_cache_update) for arp_cache_update
    at_ethernet.o(i.eth_run_link) refers to at_arp.o(i.arp_process) for arp_process
    at_ethernet.o(i.eth_run_link) refers to at_ip.o(i.ip_chk_frame) for ip_chk_frame
    at_ethernet.o(i.eth_run_link) refers to at_lib.o(i.mem_comp) for mem_comp
    at_ethernet.o(i.eth_run_link) refers to at_lib.o(i.nrd_u32be) for nrd_u32be
    at_ethernet.o(i.eth_run_link) refers to at_arp.o(i.arp_cache_early) for arp_cache_early
    at_ethernet.o(i.eth_run_link) refers to at_arp.o(i.arp_cache_add) for arp_cache_add
    at_ethernet.o(i.eth_run_link) refers to at_icmp.o(i.icmp_process) for icmp_process
    at_ethernet.o(i.eth_run_link) refers to net_config.o(i.igmp_process) for igmp_process
    at_ethernet.o(i.eth_run_link) refers to at_udp.o(i.udp_process) for udp_process
    at_ethernet.o(i.eth_run_link) refers to at_tcp.o(i.tcp_process) for tcp_process
    at_ethernet.o(i.eth_run_link) refers to at_mem.o(i.free_mem) for free_mem
    at_ethernet.o(i.eth_run_link) refers to at_ethernet.o(.bss) for .bss
    at_ethernet.o(i.eth_run_link) refers to at_system.o(.bss) for sys_control
    at_ethernet.o(i.eth_run_link) refers to at_ethernet.o(.constdata) for .constdata
    at_ethernet.o(i.eth_send_frame) refers to at_lib.o(i.mem_comp) for mem_comp
    at_ethernet.o(i.eth_send_frame) refers to at_lib.o(i.nrd_u32be) for nrd_u32be
    at_ethernet.o(i.eth_send_frame) refers to at_arp.o(i.arp_cache_find) for arp_cache_find
    at_ethernet.o(i.eth_send_frame) refers to at_lib.o(i.mem_copy) for mem_copy
    at_ethernet.o(i.eth_send_frame) refers to emac_lpc17xx.o(i.send_frame) for send_frame
    at_ethernet.o(i.eth_send_frame) refers to at_ethernet.o(.constdata) for .constdata
    at_ethernet.o(i.eth_send_frame) refers to at_ip.o(.constdata) for IP_Broadcast
    at_ethernet.o(i.eth_send_frame) refers to at_system.o(.bss) for localm
    at_ethernet.o(i.eth_send_frame) refers to net_config.o(.data) for own_hw_adr
    at_ethernet.o(i.put_in_queue) refers to at_mem.o(i.ifree_mem) for ifree_mem
    at_ethernet.o(i.put_in_queue) refers to at_ethernet.o(.bss) for .bss
    at_lib.o(i.asc_to_b64) refers to at_lib.o(i.encode_b64) for encode_b64
    at_lib.o(i.bin_to_b64) refers to at_lib.o(i.encode_b64) for encode_b64
    at_lib.o(i.calc_chksum16be) refers to at_lib.o(i.chksum16_buf) for chksum16_buf
    at_lib.o(i.mem_crc32) refers to at_lib.o(i.get_crc32) for get_crc32
    at_lib.o(i.str_crc32) refers to at_lib.o(i.get_crc32) for get_crc32
    at_mem.o(i.alloc_mem) refers to emac_lpc17xx.o(i.int_disable_eth) for int_disable_eth
    at_mem.o(i.alloc_mem) refers to emac_lpc17xx.o(i.int_enable_eth) for int_enable_eth
    at_mem.o(i.alloc_mem) refers to net_config.o(i.sys_error) for sys_error
    at_mem.o(i.alloc_mem) refers to at_mem.o(.bss) for .bss
    at_mem.o(i.alloc_mem) refers to net_config.o(.constdata) for sys_config
    at_mem.o(i.avail_mem) refers to at_mem.o(.bss) for .bss
    at_mem.o(i.free_mem) refers to emac_lpc17xx.o(i.int_disable_eth) for int_disable_eth
    at_mem.o(i.free_mem) refers to emac_lpc17xx.o(i.int_enable_eth) for int_enable_eth
    at_mem.o(i.free_mem) refers to net_config.o(i.sys_error) for sys_error
    at_mem.o(i.free_mem) refers to at_mem.o(.bss) for .bss
    at_mem.o(i.free_mem) refers to net_config.o(.constdata) for sys_config
    at_mem.o(i.ifree_mem) refers to net_config.o(.constdata) for sys_config
    at_mem.o(i.ifree_mem) refers to at_mem.o(.bss) for .bss
    at_mem.o(i.init_mem) refers to emac_lpc17xx.o(i.int_disable_eth) for int_disable_eth
    at_mem.o(i.init_mem) refers to at_mem.o(.bss) for .bss
    at_mem.o(i.init_mem) refers to net_config.o(.constdata) for sys_config
    at_mem.o(i.resize_mem) refers to net_config.o(i.sys_error) for sys_error
    at_mem.o(i.resize_mem) refers to emac_lpc17xx.o(i.int_disable_eth) for int_disable_eth
    at_mem.o(i.resize_mem) refers to emac_lpc17xx.o(i.int_enable_eth) for int_enable_eth
    at_mem.o(i.resize_mem) refers to at_mem.o(.bss) for .bss
    at_system.o(i.get_rnd32) refers to at_system.o(.bss) for .bss
    at_system.o(i.init_TcpNet) refers to at_mem.o(i.init_mem) for init_mem
    at_system.o(i.init_TcpNet) refers to at_lib.o(i.mem_copy) for mem_copy
    at_system.o(i.init_TcpNet) refers to net_config.o(i.init_system) for init_system
    at_system.o(i.init_TcpNet) refers to at_system.o(.bss) for .bss
    at_system.o(i.init_TcpNet) refers to net_config.o(.constdata) for nlocalm
    at_system.o(i.main_TcpNet) refers to net_config.o(i.run_system) for run_system
    at_system.o(i.main_TcpNet) refers to at_system.o(.bss) for .bss
    at_system.o(i.main_TcpNet) refers to net_config.o(.constdata) for sys_config
    at_system.o(i.timer_tick) refers to at_system.o(.bss) for .bss
    fs_fat.o(i.alloc_new_clus) refers to fs_fat.o(i.get_free_clus) for get_free_clus
    fs_fat.o(i.alloc_new_clus) refers to fs_fat.o(i.get_EOC) for get_EOC
    fs_fat.o(i.alloc_new_clus) refers to fs_fat.o(i.write_fat_link) for write_fat_link
    fs_fat.o(i.alloc_new_clus) refers to fs_fat.o(i.cache_fat) for cache_fat
    fs_fat.o(i.bs_read) refers to fs_fat.o(i.read_sector) for read_sector
    fs_fat.o(i.bs_read) refers to fs_fat.o(i.get_u16) for get_u16
    fs_fat.o(i.bs_read) refers to fs_fat.o(i.get_u32) for get_u32
    fs_fat.o(i.bs_write) refers to rt_memclr.o(.text) for __aeabi_memclr
    fs_fat.o(i.bs_write) refers to fs_fat.o(i.set_u16) for set_u16
    fs_fat.o(i.bs_write) refers to fs_fat.o(i.set_u32) for set_u32
    fs_fat.o(i.bs_write) refers to fs_fat.o(i.write_cache) for write_cache
    fs_fat.o(i.cache_fat) refers to file_config.o(i.fsj_write) for fsj_write
    fs_fat.o(i.clear_clus) refers to fs_fat.o(i.clus_to_sect) for clus_to_sect
    fs_fat.o(i.clear_clus) refers to rt_memclr.o(.text) for __aeabi_memclr
    fs_fat.o(i.clear_clus) refers to fs_fat.o(i.write_cache) for write_cache
    fs_fat.o(i.count_free_clus) refers to fs_fat.o(i.get_fat_sect) for get_fat_sect
    fs_fat.o(i.count_free_clus) refers to fs_fat.o(i.cache_fat) for cache_fat
    fs_fat.o(i.count_free_clus) refers to fs_fat.o(i.get_u16) for get_u16
    fs_fat.o(i.create_dot_entries) refers to fs_fat.o(i.entry_read) for entry_read
    fs_fat.o(i.create_dot_entries) refers to fs_fat.o(i.get_time) for get_time
    fs_fat.o(i.create_dot_entries) refers to fs_fat.o(i.get_date) for get_date
    fs_fat.o(i.create_dot_entries) refers to rt_memcpy_w.o(.text) for __aeabi_memcpy4
    fs_fat.o(i.create_dot_entries) refers to fs_fat.o(i.set_u16) for set_u16
    fs_fat.o(i.create_dot_entries) refers to fs_fat.o(i.entry_flush) for entry_flush
    fs_fat.o(i.create_lfn_entry) refers to fs_fat.o(i.entry_read) for entry_read
    fs_fat.o(i.create_lfn_entry) refers to fs_fat.o(i.entry_flush) for entry_flush
    fs_fat.o(i.create_lfn_entry) refers to fs_fat.o(i.entry_pos_set) for entry_pos_set
    fs_fat.o(i.create_lfn_entry) refers to fs_fat.o(.constdata) for .constdata
    fs_fat.o(i.create_sfn_entry) refers to fs_fat.o(i.entry_read) for entry_read
    fs_fat.o(i.create_sfn_entry) refers to fs_fat.o(i.get_time) for get_time
    fs_fat.o(i.create_sfn_entry) refers to fs_fat.o(i.set_u16) for set_u16
    fs_fat.o(i.create_sfn_entry) refers to fs_fat.o(i.get_date) for get_date
    fs_fat.o(i.create_sfn_entry) refers to fs_fat.o(i.entry_flush) for entry_flush
    fs_fat.o(i.entry_flush) refers to fs_fat.o(i.clus_to_sect) for clus_to_sect
    fs_fat.o(i.entry_flush) refers to fs_fat.o(i.write_sector) for write_sector
    fs_fat.o(i.entry_pos_set) refers to fs_fat.o(i.set_next_clus) for set_next_clus
    fs_fat.o(i.entry_pos_set) refers to fs_fat.o(i.is_EOC) for is_EOC
    fs_fat.o(i.entry_read) refers to fs_fat.o(i.clus_to_sect) for clus_to_sect
    fs_fat.o(i.entry_read) refers to fs_fat.o(i.read_sector) for read_sector
    fs_fat.o(i.fat_attrib) refers to fs_lib.o(i.fs_chk_media) for fs_chk_media
    fs_fat.o(i.fat_attrib) refers to fs_fat.o(i.path_validate) for path_validate
    fs_fat.o(i.fat_attrib) refers to fs_lib.o(i.fs_find_drv) for fs_find_drv
    fs_fat.o(i.fat_attrib) refers to file_config.o(i.elink_init_path) for elink_init_path
    fs_fat.o(i.fat_attrib) refers to fs_fat.o(i.set_root_clus) for set_root_clus
    fs_fat.o(i.fat_attrib) refers to fs_fat.o(i.path_open) for path_open
    fs_fat.o(i.fat_attrib) refers to fs_fat.o(i.entry_pos_set) for entry_pos_set
    fs_fat.o(i.fat_attrib) refers to fs_lib.o(i.fs_fat_lock) for fs_fat_lock
    fs_fat.o(i.fat_attrib) refers to fs_fat.o(i.entry_flush) for entry_flush
    fs_fat.o(i.fat_close) refers to fs_lib.o(i.fs_chk_media) for fs_chk_media
    fs_fat.o(i.fat_close) refers to fs_fat.o(i.fat_seek) for fat_seek
    fs_fat.o(i.fat_close) refers to fs_fat.o(i.get_EOC) for get_EOC
    fs_fat.o(i.fat_close) refers to fs_fat.o(i.write_fat_link) for write_fat_link
    fs_fat.o(i.fat_close) refers to fs_fat.o(i.entry_read) for entry_read
    fs_fat.o(i.fat_close) refers to fs_fat.o(i.set_u16) for set_u16
    fs_fat.o(i.fat_close) refers to fs_fat.o(i.set_u32) for set_u32
    fs_fat.o(i.fat_close) refers to fs_fat.o(i.get_time) for get_time
    fs_fat.o(i.fat_close) refers to fs_fat.o(i.get_date) for get_date
    fs_fat.o(i.fat_close) refers to fs_fat.o(i.entry_flush) for entry_flush
    fs_fat.o(i.fat_close) refers to fs_fat.o(i.fsinfo_write) for fsinfo_write
    fs_fat.o(i.fat_close) refers to fs_fat.o(i.write_cache) for write_cache
    fs_fat.o(i.fat_close) refers to fs_fat.o(i.cache_fat) for cache_fat
    fs_fat.o(i.fat_crc32) refers to fs_fat.o(.constdata) for .constdata
    fs_fat.o(i.fat_delete) refers to fs_fat.o(i.path_validate) for path_validate
    fs_fat.o(i.fat_delete) refers to fs_lib.o(i.fs_chk_media) for fs_chk_media
    fs_fat.o(i.fat_delete) refers to fs_lib.o(i.fs_find_drv) for fs_find_drv
    fs_fat.o(i.fat_delete) refers to file_config.o(i.elink_init_path) for elink_init_path
    fs_fat.o(i.fat_delete) refers to fs_fat.o(i.set_root_clus) for set_root_clus
    fs_fat.o(i.fat_delete) refers to fs_fat.o(i.path_open) for path_open
    fs_fat.o(i.fat_delete) refers to fs_fat.o(i.get_u16) for get_u16
    fs_fat.o(i.fat_delete) refers to fs_fat.o(i.is_dir_empty) for is_dir_empty
    fs_fat.o(i.fat_delete) refers to fs_fat.o(i.frec_delete_elink) for frec_delete_elink
    fs_fat.o(i.fat_delete) refers to fs_fat.o(i.frec_delete) for frec_delete
    fs_fat.o(i.fat_delete) refers to fs_fat.o(i.unlink_clus_chain) for unlink_clus_chain
    fs_fat.o(i.fat_delete) refers to fs_fat.o(i.fsinfo_write) for fsinfo_write
    fs_fat.o(i.fat_delete) refers to fs_fat.o(i.write_cache) for write_cache
    fs_fat.o(i.fat_ffind) refers to fs_lib.o(i.fs_chk_media) for fs_chk_media
    fs_fat.o(i.fat_ffind) refers to fs_lib.o(i.fs_find_drv) for fs_find_drv
    fs_fat.o(i.fat_ffind) refers to file_config.o(i.elink_init_path) for elink_init_path
    fs_fat.o(i.fat_ffind) refers to fs_fat.o(i.set_root_clus) for set_root_clus
    fs_fat.o(i.fat_ffind) refers to fs_fat.o(i.path_open) for path_open
    fs_fat.o(i.fat_ffind) refers to fs_fat.o(i.entry_pos_set) for entry_pos_set
    fs_fat.o(i.fat_ffind) refers to fs_fat.o(i.frec_next) for frec_next
    fs_fat.o(i.fat_ffind) refers to rt_memcpy_v6.o(.text) for __aeabi_memcpy
    fs_fat.o(i.fat_ffind) refers to fs_fat.o(i.get_u32) for get_u32
    fs_fat.o(i.fat_ffind) refers to fs_fat.o(i.get_u16) for get_u16
    fs_fat.o(i.fat_format) refers to fs_lib.o(i.fs_chk_media) for fs_chk_media
    fs_fat.o(i.fat_format) refers to fs_fat.o(i.get_param) for get_param
    fs_fat.o(i.fat_format) refers to aeabi_memset.o(.text) for __aeabi_memset
    fs_fat.o(i.fat_format) refers to fs_fat.o(i.mbr_write) for mbr_write
    fs_fat.o(i.fat_format) refers to rt_memclr.o(.text) for __aeabi_memclr
    fs_fat.o(i.fat_format) refers to lludivv7m.o(.text) for __aeabi_uldivmod
    fs_fat.o(i.fat_format) refers to fs_fat.o(i.write_cache) for write_cache
    fs_fat.o(i.fat_format) refers to fs_fat.o(i.bs_write) for bs_write
    fs_fat.o(i.fat_format) refers to fs_fat.o(i.fsinfo_write) for fsinfo_write
    fs_fat.o(i.fat_format) refers to fs_fat.o(i.set_u32) for set_u32
    fs_fat.o(i.fat_format) refers to fs_fat.o(i.get_date) for get_date
    fs_fat.o(i.fat_format) refers to fs_fat.o(i.set_u16) for set_u16
    fs_fat.o(i.fat_format) refers to fs_fat.o(i.get_time) for get_time
    fs_fat.o(i.fat_format) refers to file_config.o(i.fat_jour_prep) for fat_jour_prep
    fs_fat.o(i.fat_format) refers to file_config.o(i.fat_jour_init) for fat_jour_init
    fs_fat.o(i.fat_format) refers to fs_lib.o(i.fs_find_drv) for fs_find_drv
    fs_fat.o(i.fat_format) refers to file_config.o(i.elink_flush) for elink_flush
    fs_fat.o(i.fat_format) refers to fs_fat.o(.constdata) for .constdata
    fs_fat.o(i.fat_free) refers to fs_lib.o(i.fs_chk_media) for fs_chk_media
    fs_fat.o(i.fat_free) refers to fs_fat.o(i.count_free_clus) for count_free_clus
    fs_fat.o(i.fat_init) refers to fs_lib.o(i.fs_find_drv) for fs_find_drv
    fs_fat.o(i.fat_init) refers to file_config.o(i.elink_flush) for elink_flush
    fs_fat.o(i.fat_init) refers to rt_memclr_w.o(.text) for __aeabi_memclr4
    fs_fat.o(i.fat_init) refers to fs_fat.o(i.read_sector) for read_sector
    fs_fat.o(i.fat_init) refers to fs_fat.o(i.get_u16) for get_u16
    fs_fat.o(i.fat_init) refers to fs_fat.o(i.get_u32) for get_u32
    fs_fat.o(i.fat_init) refers to fs_fat.o(i.bs_read) for bs_read
    fs_fat.o(i.fat_init) refers to fs_fat.o(i.fsinfo_read) for fsinfo_read
    fs_fat.o(i.fat_init) refers to fs_fat.o(i.count_free_clus) for count_free_clus
    fs_fat.o(i.fat_init) refers to fs_fat.o(i.fsinfo_write) for fsinfo_write
    fs_fat.o(i.fat_jour_init) refers to fs_fat.o(i.j_init_fats) for j_init_fats
    fs_fat.o(i.fat_jour_init) refers to fs_fat.o(i.j_rep_space) for j_rep_space
    fs_fat.o(i.fat_jour_init) refers to file_config.o(i.fsj_init) for fsj_init
    fs_fat.o(i.fat_jour_init) refers to file_config.o(i.fat_jour_prep) for fat_jour_prep
    fs_fat.o(i.fat_jour_prep) refers to fs_fat.o(i.j_find_reg) for j_find_reg
    fs_fat.o(i.fat_jour_prep) refers to fs_fat.o(i.j_mark_rsvd) for j_mark_rsvd
    fs_fat.o(i.fat_jour_prep) refers to fs_fat.o(i.clus_to_sect) for clus_to_sect
    fs_fat.o(i.fat_jour_prep) refers to fs_fat.o(i.set_u32) for set_u32
    fs_fat.o(i.fat_jour_prep) refers to fs_fat.o(i.write_sector) for write_sector
    fs_fat.o(i.fat_jour_prep) refers to fs_fat.o(i.j_rep_space) for j_rep_space
    fs_fat.o(i.fat_open) refers to fs_fat.o(i.path_validate) for path_validate
    fs_fat.o(i.fat_open) refers to fs_lib.o(i.fs_find_drv) for fs_find_drv
    fs_fat.o(i.fat_open) refers to file_config.o(i.elink_init_path) for elink_init_path
    fs_fat.o(i.fat_open) refers to fs_fat.o(i.set_root_clus) for set_root_clus
    fs_fat.o(i.fat_open) refers to fs_fat.o(i.path_open) for path_open
    fs_fat.o(i.fat_open) refers to fs_fat.o(i.entry_pos_set) for entry_pos_set
    fs_fat.o(i.fat_open) refers to fs_lib.o(i.fs_fat_lock) for fs_fat_lock
    fs_fat.o(i.fat_open) refers to fs_fat.o(i.get_u16) for get_u16
    fs_fat.o(i.fat_open) refers to fs_fat.o(i.get_time) for get_time
    fs_fat.o(i.fat_open) refers to fs_fat.o(i.set_u16) for set_u16
    fs_fat.o(i.fat_open) refers to fs_fat.o(i.get_date) for get_date
    fs_fat.o(i.fat_open) refers to fs_fat.o(i.entry_flush) for entry_flush
    fs_fat.o(i.fat_open) refers to fs_fat.o(i.unlink_clus_chain) for unlink_clus_chain
    fs_fat.o(i.fat_open) refers to fs_fat.o(i.fsinfo_write) for fsinfo_write
    fs_fat.o(i.fat_open) refers to fs_fat.o(i.path_create) for path_create
    fs_fat.o(i.fat_open) refers to fs_fat.o(i.entry_read) for entry_read
    fs_fat.o(i.fat_open) refers to fs_fat.o(i.get_u32) for get_u32
    fs_fat.o(i.fat_read) refers to fs_lib.o(i.fs_chk_media) for fs_chk_media
    fs_fat.o(i.fat_read) refers to fs_fat.o(i.clus_to_sect) for clus_to_sect
    fs_fat.o(i.fat_read) refers to fs_fat.o(i.read_cache) for read_cache
    fs_fat.o(i.fat_read) refers to rt_memcpy_v6.o(.text) for __aeabi_memcpy
    fs_fat.o(i.fat_read) refers to fs_fat.o(i.set_next_clus) for set_next_clus
    fs_fat.o(i.fat_read_label) refers to fs_fat.o(i.set_root_clus) for set_root_clus
    fs_fat.o(i.fat_read_label) refers to fs_fat.o(i.entry_read) for entry_read
    fs_fat.o(i.fat_read_label) refers to fs_fat.o(i.entry_type) for entry_type
    fs_fat.o(i.fat_read_label) refers to fs_fat.o(i.entry_pos_set) for entry_pos_set
    fs_fat.o(i.fat_rename) refers to fs_lib.o(i.fs_chk_media) for fs_chk_media
    fs_fat.o(i.fat_rename) refers to fs_lib.o(i.fs_find_drv) for fs_find_drv
    fs_fat.o(i.fat_rename) refers to file_config.o(i.elink_init_path) for elink_init_path
    fs_fat.o(i.fat_rename) refers to fs_fat.o(i.set_root_clus) for set_root_clus
    fs_fat.o(i.fat_rename) refers to fs_fat.o(i.path_open) for path_open
    fs_fat.o(i.fat_rename) refers to fs_fat.o(i.frec_delete_elink) for frec_delete_elink
    fs_fat.o(i.fat_rename) refers to rt_memcpy_w.o(.text) for __aeabi_memcpy4
    fs_fat.o(i.fat_rename) refers to fs_fat.o(i.path_create) for path_create
    fs_fat.o(i.fat_rename) refers to fs_fat.o(i.entry_read) for entry_read
    fs_fat.o(i.fat_rename) refers to fs_fat.o(i.get_date) for get_date
    fs_fat.o(i.fat_rename) refers to fs_fat.o(i.set_u16) for set_u16
    fs_fat.o(i.fat_rename) refers to fs_fat.o(i.entry_flush) for entry_flush
    fs_fat.o(i.fat_rename) refers to fs_fat.o(i.frec_delete) for frec_delete
    fs_fat.o(i.fat_seek) refers to fs_lib.o(i.fs_chk_media) for fs_chk_media
    fs_fat.o(i.fat_seek) refers to fs_fat.o(i.set_next_clus) for set_next_clus
    fs_fat.o(i.fat_seek) refers to fs_fat.o(i.is_EOC) for is_EOC
    fs_fat.o(i.fat_write) refers to fs_lib.o(i.fs_chk_media) for fs_chk_media
    fs_fat.o(i.fat_write) refers to fs_fat.o(i.get_free_clus) for get_free_clus
    fs_fat.o(i.fat_write) refers to fs_fat.o(i.set_next_clus) for set_next_clus
    fs_fat.o(i.fat_write) refers to fs_fat.o(i.write_fat_link) for write_fat_link
    fs_fat.o(i.fat_write) refers to fs_fat.o(i.clus_to_sect) for clus_to_sect
    fs_fat.o(i.fat_write) refers to fs_fat.o(i.read_sector) for read_sector
    fs_fat.o(i.fat_write) refers to rt_memcpy_v6.o(.text) for __aeabi_memcpy
    fs_fat.o(i.fat_write) refers to fs_fat.o(i.write_cache) for write_cache
    fs_fat.o(i.frec_allocate) refers to file_config.o(i.elink_cmd) for elink_cmd
    fs_fat.o(i.frec_allocate) refers to fs_fat.o(i.entry_pos_comp) for entry_pos_comp
    fs_fat.o(i.frec_allocate) refers to fs_fat.o(i.entry_read) for entry_read
    fs_fat.o(i.frec_allocate) refers to fs_fat.o(i.entry_type) for entry_type
    fs_fat.o(i.frec_allocate) refers to fs_fat.o(i.entry_pos_set) for entry_pos_set
    fs_fat.o(i.frec_allocate) refers to fs_fat.o(i.alloc_new_clus) for alloc_new_clus
    fs_fat.o(i.frec_allocate) refers to fs_fat.o(i.clear_clus) for clear_clus
    fs_fat.o(i.frec_delete) refers to fs_fat.o(i.entry_read) for entry_read
    fs_fat.o(i.frec_delete) refers to fs_fat.o(i.entry_flush) for entry_flush
    fs_fat.o(i.frec_delete) refers to fs_fat.o(i.entry_pos_set) for entry_pos_set
    fs_fat.o(i.frec_delete_elink) refers to file_config.o(i.elink_cmd) for elink_cmd
    fs_fat.o(i.frec_delete_elink) refers to fs_fat.o(i.entry_pos_comp) for entry_pos_comp
    fs_fat.o(i.frec_delete_elink) refers to file_config.o(i.elink_delete) for elink_delete
    fs_fat.o(i.frec_find) refers to file_config.o(i.elink_cmd) for elink_cmd
    fs_fat.o(i.frec_find) refers to fs_fat.o(i.entry_pos_comp) for entry_pos_comp
    fs_fat.o(i.frec_find) refers to fs_fat.o(i.entry_read) for entry_read
    fs_fat.o(i.frec_find) refers to fs_fat.o(i.entry_type) for entry_type
    fs_fat.o(i.frec_find) refers to fs_fat.o(i.fat_crc32) for fat_crc32
    fs_fat.o(i.frec_find) refers to fs_fat.o(i.sn_chksum) for sn_chksum
    fs_fat.o(i.frec_find) refers to fs_fat.o(i.sfn_extract) for sfn_extract
    fs_fat.o(i.frec_find) refers to strncasecmp.o(.text) for strncasecmp
    fs_fat.o(i.frec_find) refers to fs_fat.o(i.short_ent_hash) for short_ent_hash
    fs_fat.o(i.frec_find) refers to file_config.o(i.elink_insert) for elink_insert
    fs_fat.o(i.frec_find) refers to fs_fat.o(i.entry_pos_set) for entry_pos_set
    fs_fat.o(i.frec_find) refers to fs_fat.o(.constdata) for .constdata
    fs_fat.o(i.frec_find_elink) refers to fs_fat.o(i.name_hash) for name_hash
    fs_fat.o(i.frec_find_elink) refers to file_config.o(i.elink_scan) for elink_scan
    fs_fat.o(i.frec_find_elink) refers to fs_fat.o(i.entry_read) for entry_read
    fs_fat.o(i.frec_next) refers to fs_fat.o(i.entry_read) for entry_read
    fs_fat.o(i.frec_next) refers to fs_fat.o(i.entry_type) for entry_type
    fs_fat.o(i.frec_next) refers to fs_fat.o(i.sn_chksum) for sn_chksum
    fs_fat.o(i.frec_next) refers to fs_fat.o(i.sfn_extract) for sfn_extract
    fs_fat.o(i.frec_next) refers to fs_fat.o(i.entry_pos_set) for entry_pos_set
    fs_fat.o(i.frec_next) refers to fs_fat.o(.constdata) for .constdata
    fs_fat.o(i.fsinfo_read) refers to fs_fat.o(i.read_sector) for read_sector
    fs_fat.o(i.fsinfo_read) refers to fs_fat.o(i.get_u32) for get_u32
    fs_fat.o(i.fsinfo_write) refers to rt_memclr.o(.text) for __aeabi_memclr
    fs_fat.o(i.fsinfo_write) refers to fs_fat.o(i.set_u32) for set_u32
    fs_fat.o(i.fsinfo_write) refers to fs_fat.o(i.set_u16) for set_u16
    fs_fat.o(i.fsinfo_write) refers to fs_fat.o(i.write_cache) for write_cache
    fs_fat.o(i.get_date) refers to fs_time.o(i.fs_get_date) for fs_get_date
    fs_fat.o(i.get_fen_val) refers to fs_fat.o(i.set_next_clus) for set_next_clus
    fs_fat.o(i.get_free_clus) refers to fs_fat.o(i.get_fat_sect) for get_fat_sect
    fs_fat.o(i.get_free_clus) refers to fs_fat.o(i.cache_fat) for cache_fat
    fs_fat.o(i.get_free_clus) refers to fs_fat.o(i.get_u16) for get_u16
    fs_fat.o(i.get_free_clus) refers to fs_fat.o(i.get_u32) for get_u32
    fs_fat.o(i.get_free_clus) refers to file_config.o(.constdata) for _NFILE
    fs_fat.o(i.get_free_clus) refers to file_config.o(.bss) for _iob
    fs_fat.o(i.get_time) refers to fs_time.o(i.fs_get_time) for fs_get_time
    fs_fat.o(i.is_dir_empty) refers to fs_fat.o(i.set_root_clus) for set_root_clus
    fs_fat.o(i.is_dir_empty) refers to fs_fat.o(i.entry_read) for entry_read
    fs_fat.o(i.is_dir_empty) refers to fs_fat.o(i.entry_type) for entry_type
    fs_fat.o(i.is_dir_empty) refers to strcmpv7m.o(.text) for strcmp
    fs_fat.o(i.is_dir_empty) refers to fs_fat.o(i.entry_pos_set) for entry_pos_set
    fs_fat.o(i.j_chk_rsvd) refers to fs_fat.o(i.get_RSVD) for get_RSVD
    fs_fat.o(i.j_chk_rsvd) refers to fs_fat.o(i.get_fen_val) for get_fen_val
    fs_fat.o(i.j_find_reg) refers to fs_fat.o(i.j_low_boundary) for j_low_boundary
    fs_fat.o(i.j_find_reg) refers to fs_fat.o(i.get_fen_val) for get_fen_val
    fs_fat.o(i.j_find_reg) refers to fs_fat.o(i.j_clus_cnt) for j_clus_cnt
    fs_fat.o(i.j_find_rsvd) refers to fs_fat.o(i.j_low_boundary) for j_low_boundary
    fs_fat.o(i.j_find_rsvd) refers to fs_fat.o(i.get_fen_val) for get_fen_val
    fs_fat.o(i.j_find_rsvd) refers to fs_fat.o(i.get_RSVD) for get_RSVD
    fs_fat.o(i.j_find_rsvd) refers to fs_fat.o(i.clus_to_sect) for clus_to_sect
    fs_fat.o(i.j_find_rsvd) refers to fs_fat.o(i.read_sector) for read_sector
    fs_fat.o(i.j_find_rsvd) refers to fs_fat.o(i.get_u32) for get_u32
    fs_fat.o(i.j_find_rsvd) refers to fs_fat.o(i.j_clus_cnt) for j_clus_cnt
    fs_fat.o(i.j_find_rsvd) refers to fs_fat.o(i.j_chk_rsvd) for j_chk_rsvd
    fs_fat.o(i.j_init_fats) refers to fs_fat.o(i.switch_fat) for switch_fat
    fs_fat.o(i.j_init_fats) refers to fs_fat.o(i.j_find_rsvd) for j_find_rsvd
    fs_fat.o(i.j_init_fats) refers to fs_fat.o(i.j_clus_cnt) for j_clus_cnt
    fs_fat.o(i.j_init_fats) refers to fs_fat.o(i.j_chk_rsvd) for j_chk_rsvd
    fs_fat.o(i.j_init_fats) refers to fs_fat.o(i.j_mark_rsvd) for j_mark_rsvd
    fs_fat.o(i.j_mark_rsvd) refers to fs_fat.o(i.get_RSVD) for get_RSVD
    fs_fat.o(i.j_mark_rsvd) refers to fs_fat.o(i.write_fat_link) for write_fat_link
    fs_fat.o(i.j_mark_rsvd) refers to fs_fat.o(i.cache_fat) for cache_fat
    fs_fat.o(i.j_rep_space) refers to fs_fat.o(i.clus_to_sect) for clus_to_sect
    fs_fat.o(i.j_rep_space) refers to fs_fat.o(i.j_clus_cnt) for j_clus_cnt
    fs_fat.o(i.j_rep_space) refers to file_config.o(i.fsj_set_space) for fsj_set_space
    fs_fat.o(i.mbr_write) refers to rt_memclr.o(.text) for __aeabi_memclr
    fs_fat.o(i.mbr_write) refers to fs_fat.o(i.set_u16) for set_u16
    fs_fat.o(i.mbr_write) refers to fs_fat.o(i.set_u32) for set_u32
    fs_fat.o(i.mbr_write) refers to fs_fat.o(i.write_sector) for write_sector
    fs_fat.o(i.mbr_write) refers to fs_fat.o(.constdata) for .constdata
    fs_fat.o(i.name_analyse) refers to fs_fat.o(i.char_validate) for char_validate
    fs_fat.o(i.name_basis_gen) refers to fs_fat.o(i.char_validate) for char_validate
    fs_fat.o(i.name_hash) refers to fs_fat.o(i.fat_crc32) for fat_crc32
    fs_fat.o(i.path_create) refers to fs_fat.o(i.name_strip) for name_strip
    fs_fat.o(i.path_create) refers to fs_fat.o(i.name_analyse) for name_analyse
    fs_fat.o(i.path_create) refers to fs_fat.o(i.name_basis_gen) for name_basis_gen
    fs_fat.o(i.path_create) refers to rt_memcpy_w.o(.text) for __aeabi_memcpy4
    fs_fat.o(i.path_create) refers to fs_fat.o(i.name_nt_gen) for name_nt_gen
    fs_fat.o(i.path_create) refers to strlen.o(.text) for strlen
    fs_fat.o(i.path_create) refers to fs_fat.o(i.frec_find_elink) for frec_find_elink
    fs_fat.o(i.path_create) refers to fs_fat.o(i.frec_find) for frec_find
    fs_fat.o(i.path_create) refers to fs_fat.o(i.frec_allocate) for frec_allocate
    fs_fat.o(i.path_create) refers to file_config.o(i.elink_cmd) for elink_cmd
    fs_fat.o(i.path_create) refers to fs_fat.o(i.alloc_new_clus) for alloc_new_clus
    fs_fat.o(i.path_create) refers to fs_fat.o(i.clear_clus) for clear_clus
    fs_fat.o(i.path_create) refers to fs_fat.o(i.create_dot_entries) for create_dot_entries
    fs_fat.o(i.path_create) refers to rt_memcpy_v6.o(.text) for __aeabi_memcpy
    fs_fat.o(i.path_create) refers to fs_fat.o(i.name_hash) for name_hash
    fs_fat.o(i.path_create) refers to fs_fat.o(i.sn_chksum) for sn_chksum
    fs_fat.o(i.path_create) refers to fs_fat.o(i.create_lfn_entry) for create_lfn_entry
    fs_fat.o(i.path_create) refers to fs_fat.o(i.create_sfn_entry) for create_sfn_entry
    fs_fat.o(i.path_create) refers to fs_fat.o(i.short_ent_hash) for short_ent_hash
    fs_fat.o(i.path_create) refers to file_config.o(i.elink_insert) for elink_insert
    fs_fat.o(i.path_open) refers to fs_fat.o(i.name_strip) for name_strip
    fs_fat.o(i.path_open) refers to fs_fat.o(i.name_analyse) for name_analyse
    fs_fat.o(i.path_open) refers to fs_fat.o(i.frec_find_elink) for frec_find_elink
    fs_fat.o(i.path_open) refers to fs_fat.o(i.frec_find) for frec_find
    fs_fat.o(i.path_open) refers to fs_fat.o(i.get_u16) for get_u16
    fs_fat.o(i.path_open) refers to file_config.o(i.elink_cmd) for elink_cmd
    fs_fat.o(i.path_validate) refers to fs_fat.o(i.char_validate) for char_validate
    fs_fat.o(i.read_cache) refers to fs_fat.o(i.read_sector) for read_sector
    fs_fat.o(i.read_cache) refers to rt_memcpy_v6.o(.text) for __aeabi_memcpy
    fs_fat.o(i.read_sector) refers to rt_memcpy_v6.o(.text) for __aeabi_memcpy
    fs_fat.o(i.set_next_clus) refers to fs_fat.o(i.get_fat_sect) for get_fat_sect
    fs_fat.o(i.set_next_clus) refers to fs_fat.o(i.cache_fat) for cache_fat
    fs_fat.o(i.set_next_clus) refers to fs_fat.o(i.get_u16) for get_u16
    fs_fat.o(i.set_next_clus) refers to fs_fat.o(i.get_u32) for get_u32
    fs_fat.o(i.short_ent_hash) refers to fs_fat.o(i.sfn_extract) for sfn_extract
    fs_fat.o(i.short_ent_hash) refers to fs_fat.o(i.fat_crc32) for fat_crc32
    fs_fat.o(i.switch_fat) refers to fs_fat.o(i.cache_fat) for cache_fat
    fs_fat.o(i.unlink_clus_chain) refers to fs_fat.o(i.get_fat_sect) for get_fat_sect
    fs_fat.o(i.unlink_clus_chain) refers to fs_fat.o(i.cache_fat) for cache_fat
    fs_fat.o(i.unlink_clus_chain) refers to fs_fat.o(i.get_u16) for get_u16
    fs_fat.o(i.unlink_clus_chain) refers to fs_fat.o(i.set_u16) for set_u16
    fs_fat.o(i.unlink_clus_chain) refers to fs_fat.o(i.get_u32) for get_u32
    fs_fat.o(i.unlink_clus_chain) refers to fs_fat.o(i.is_EOC) for is_EOC
    fs_fat.o(i.write_cache) refers to rt_memcpy_v6.o(.text) for __aeabi_memcpy
    fs_fat.o(i.write_cache) refers to fs_fat.o(i.write_sector) for write_sector
    fs_fat.o(i.write_fat_link) refers to fs_fat.o(i.get_fat_sect) for get_fat_sect
    fs_fat.o(i.write_fat_link) refers to fs_fat.o(i.cache_fat) for cache_fat
    fs_fat.o(i.write_fat_link) refers to fs_fat.o(i.get_u16) for get_u16
    fs_fat.o(i.write_fat_link) refers to fs_fat.o(i.set_u16) for set_u16
    fs_fat.o(i.write_fat_link) refers to fs_fat.o(i.get_u32) for get_u32
    fs_fat.o(i.write_fat_link) refers to fs_fat.o(i.set_u32) for set_u32
    fs_fat.o(i.write_sector) refers to file_config.o(i.fsj_write) for fsj_write
    fs_lib.o(i.fs_efs_lock) refers to file_config.o(.bss) for _iob
    fs_lib.o(i.fs_efs_lock) refers to file_config.o(.constdata) for _NFILE
    fs_lib.o(i.fs_fat_lock) refers to file_config.o(.bss) for _iob
    fs_lib.o(i.fs_fat_lock) refers to file_config.o(.constdata) for _NFILE
    fs_lib.o(i.fs_find_drv) refers to file_config.o(.constdata) for fs_DevPool
    fs_lib.o(i.fs_find_iob) refers to rt_memclr_w.o(.text) for __aeabi_memclr4
    fs_lib.o(i.fs_find_iob) refers to file_config.o(.bss) for _iob
    fs_lib.o(i.fs_find_iob) refers to file_config.o(.constdata) for _NFILE
    fs_lib.o(i.fs_map_drive) refers to file_config.o(.constdata) for fs_DevPool
    at_arp.o(i.arp_cache_add) refers to at_arp.o(i.arp_is_cacheable) for arp_is_cacheable
    at_arp.o(i.arp_cache_add) refers to at_lib.o(i.mem_comp) for mem_comp
    at_arp.o(i.arp_cache_add) refers to at_lib.o(i.is_subnet) for is_subnet
    at_arp.o(i.arp_cache_add) refers to at_lib.o(i.nrd_u32be) for nrd_u32be
    at_arp.o(i.arp_cache_add) refers to at_arp.o(i.arp_cache_alloc) for arp_cache_alloc
    at_arp.o(i.arp_cache_add) refers to at_lib.o(i.mem_copy) for mem_copy
    at_arp.o(i.arp_cache_add) refers to net_config.o(.constdata) for arp_config
    at_arp.o(i.arp_cache_add) refers to at_system.o(.bss) for localm
    at_arp.o(i.arp_cache_alloc) refers to net_config.o(.constdata) for arp_config
    at_arp.o(i.arp_cache_early) refers to at_lib.o(i.mem_comp) for mem_comp
    at_arp.o(i.arp_cache_early) refers to at_arp.o(i.arp_is_cacheable) for arp_is_cacheable
    at_arp.o(i.arp_cache_early) refers to at_lib.o(i.is_subnet) for is_subnet
    at_arp.o(i.arp_cache_early) refers to at_arp.o(i.arp_cache_alloc) for arp_cache_alloc
    at_arp.o(i.arp_cache_early) refers to at_arp.o(i.arp_send_request) for arp_send_request
    at_arp.o(i.arp_cache_early) refers to at_lib.o(i.mem_copy) for mem_copy
    at_arp.o(i.arp_cache_early) refers to net_config.o(.constdata) for arp_config
    at_arp.o(i.arp_cache_early) refers to at_system.o(.bss) for localm
    at_arp.o(i.arp_cache_find) refers to at_lib.o(i.is_subnet) for is_subnet
    at_arp.o(i.arp_cache_find) refers to at_lib.o(i.nrd_u32be) for nrd_u32be
    at_arp.o(i.arp_cache_find) refers to at_lib.o(i.mem_comp) for mem_comp
    at_arp.o(i.arp_cache_find) refers to at_arp.o(i.arp_cache_alloc) for arp_cache_alloc
    at_arp.o(i.arp_cache_find) refers to at_arp.o(i.arp_send_request) for arp_send_request
    at_arp.o(i.arp_cache_find) refers to at_lib.o(i.mem_copy) for mem_copy
    at_arp.o(i.arp_cache_find) refers to at_system.o(.bss) for localm
    at_arp.o(i.arp_cache_find) refers to net_config.o(.constdata) for arp_config
    at_arp.o(i.arp_cache_find) refers to at_ethernet.o(.constdata) for MAC_Broadcast
    at_arp.o(i.arp_cache_ip) refers to at_arp.o(i.arp_is_cacheable) for arp_is_cacheable
    at_arp.o(i.arp_cache_ip) refers to at_arp.o(i.arp_cache_find) for arp_cache_find
    at_arp.o(i.arp_cache_ip) refers to at_lib.o(i.mem_comp) for mem_comp
    at_arp.o(i.arp_cache_mac) refers to at_lib.o(i.mem_comp) for mem_comp
    at_arp.o(i.arp_cache_mac) refers to at_arp.o(i.arp_cache_alloc) for arp_cache_alloc
    at_arp.o(i.arp_cache_mac) refers to at_arp.o(i.arp_send_request) for arp_send_request
    at_arp.o(i.arp_cache_mac) refers to at_lib.o(i.mem_set) for mem_set
    at_arp.o(i.arp_cache_mac) refers to at_lib.o(i.mem_copy) for mem_copy
    at_arp.o(i.arp_cache_mac) refers to net_config.o(.constdata) for arp_config
    at_arp.o(i.arp_cache_mac) refers to at_system.o(.bss) for localm
    at_arp.o(i.arp_cache_update) refers to at_lib.o(i.mem_comp) for mem_comp
    at_arp.o(i.arp_cache_update) refers to at_lib.o(i.nrd_u32be) for nrd_u32be
    at_arp.o(i.arp_cache_update) refers to at_arp.o(i.arp_send_request) for arp_send_request
    at_arp.o(i.arp_cache_update) refers to at_arp.o(.data) for .data
    at_arp.o(i.arp_cache_update) refers to at_system.o(.bss) for sys_control
    at_arp.o(i.arp_cache_update) refers to net_config.o(.constdata) for arp_config
    at_arp.o(i.arp_get_hwadr) refers to at_lib.o(i.mem_comp) for mem_comp
    at_arp.o(i.arp_get_hwadr) refers to net_config.o(.constdata) for arp_config
    at_arp.o(i.arp_get_info) refers to at_lib.o(i.nrd_u32be) for nrd_u32be
    at_arp.o(i.arp_get_info) refers to at_arp.o(i.arp_get_hwadr) for arp_get_hwadr
    at_arp.o(i.arp_get_info) refers to at_lib.o(i.mem_comp) for mem_comp
    at_arp.o(i.arp_get_info) refers to at_lib.o(i.mem_copy) for mem_copy
    at_arp.o(i.arp_get_info) refers to net_config.o(.constdata) for arp_config
    at_arp.o(i.arp_init) refers to net_config.o(.constdata) for arp_config
    at_arp.o(i.arp_init) refers to at_arp.o(.data) for .data
    at_arp.o(i.arp_is_cacheable) refers to at_system.o(.bss) for localm
    at_arp.o(i.arp_notify) refers to at_arp.o(i.arp_send_request) for arp_send_request
    at_arp.o(i.arp_notify) refers to at_arp.o(.data) for .data
    at_arp.o(i.arp_notify) refers to net_config.o(.constdata) for arp_config
    at_arp.o(i.arp_notify) refers to at_system.o(.bss) for localm
    at_arp.o(i.arp_probe) refers to at_arp.o(i.arp_send_request) for arp_send_request
    at_arp.o(i.arp_probe) refers to at_arp.o(.data) for .data
    at_arp.o(i.arp_proc_response) refers to at_lib.o(i.mem_comp) for mem_comp
    at_arp.o(i.arp_proc_response) refers to at_lib.o(i.mem_copy) for mem_copy
    at_arp.o(i.arp_proc_response) refers to net_config.o(.constdata) for arp_config
    at_arp.o(i.arp_process) refers to at_lib.o(i.mem_comp) for mem_comp
    at_arp.o(i.arp_process) refers to at_arp.o(i.arp_cache_add) for arp_cache_add
    at_arp.o(i.arp_process) refers to at_lib.o(i.mem_copy) for mem_copy
    at_arp.o(i.arp_process) refers to at_arp.o(i.arp_send_reply) for arp_send_reply
    at_arp.o(i.arp_process) refers to at_lib.o(i.nrd_u32be) for nrd_u32be
    at_arp.o(i.arp_process) refers to at_arp.o(i.arp_proc_response) for arp_proc_response
    at_arp.o(i.arp_process) refers to at_system.o(.bss) for localm
    at_arp.o(i.arp_process) refers to net_config.o(.constdata) for arp_config
    at_arp.o(i.arp_process) refers to net_config.o(.data) for own_hw_adr
    at_arp.o(i.arp_process) refers to at_arp.o(.data) for .data
    at_arp.o(i.arp_send_reply) refers to at_mem.o(i.alloc_mem) for alloc_mem
    at_arp.o(i.arp_send_reply) refers to at_lib.o(i.mem_copy) for mem_copy
    at_arp.o(i.arp_send_reply) refers to emac_lpc17xx.o(i.send_frame) for send_frame
    at_arp.o(i.arp_send_reply) refers to at_mem.o(i.free_mem) for free_mem
    at_arp.o(i.arp_send_reply) refers to net_config.o(.data) for own_hw_adr
    at_arp.o(i.arp_send_reply) refers to at_system.o(.bss) for localm
    at_arp.o(i.arp_send_request) refers to at_mem.o(i.alloc_mem) for alloc_mem
    at_arp.o(i.arp_send_request) refers to at_lib.o(i.mem_copy) for mem_copy
    at_arp.o(i.arp_send_request) refers to emac_lpc17xx.o(i.send_frame) for send_frame
    at_arp.o(i.arp_send_request) refers to at_mem.o(i.free_mem) for free_mem
    at_arp.o(i.arp_send_request) refers to at_ethernet.o(.constdata) for MAC_Broadcast
    at_arp.o(i.arp_send_request) refers to net_config.o(.data) for own_hw_adr
    at_arp.o(i.arp_send_request) refers to at_arp.o(.constdata) for .constdata
    __2sprintf.o(.text) refers to _printf_char_common.o(.text) for _printf_char_common
    __2sprintf.o(.text) refers to _sputc.o(.text) for _sputc
    noretval__2sprintf.o(.text) refers to _printf_char_common.o(.text) for _printf_char_common
    noretval__2sprintf.o(.text) refers to _sputc.o(.text) for _sputc
    __printf.o(.text) refers to _printf_percent.o(.ARM.Collect$$_printf_percent$$00000000) for _printf_percent
    _printf_str.o(.text) refers (Special) to _printf_char.o(.text) for _printf_cs_common
    _printf_str.o(.text) refers (Weak) to _printf_pad.o(.text) for _printf_pre_padding
    _printf_str.o(.text) refers (Weak) to _printf_pad.o(.text) for _printf_post_padding
    _printf_dec.o(.text) refers to _printf_intcommon.o(.text) for _printf_int_common
    _printf_hex_ll.o(.text) refers to _printf_intcommon.o(.text) for _printf_int_common
    _printf_hex_ll.o(.text) refers to _printf_hex_ll.o(.constdata) for .constdata
    _printf_hex_int.o(.text) refers to _printf_intcommon.o(.text) for _printf_int_common
    _printf_hex_int.o(.text) refers to _printf_hex_int.o(.constdata) for .constdata
    _printf_hex_int_ll.o(.text) refers to _printf_intcommon.o(.text) for _printf_int_common
    _printf_hex_int_ll.o(.text) refers to _printf_hex_int_ll.o(.constdata) for .constdata
    _printf_hex_ptr.o(.text) refers to _printf_intcommon.o(.text) for _printf_int_common
    _printf_hex_ptr.o(.text) refers to _printf_hex_ptr.o(.constdata) for .constdata
    _printf_hex_int_ptr.o(.text) refers to _printf_intcommon.o(.text) for _printf_int_common
    _printf_hex_int_ptr.o(.text) refers to _printf_hex_int_ptr.o(.constdata) for .constdata
    _printf_hex_ll_ptr.o(.text) refers to _printf_intcommon.o(.text) for _printf_int_common
    _printf_hex_ll_ptr.o(.text) refers to _printf_hex_ll_ptr.o(.constdata) for .constdata
    _printf_hex_int_ll_ptr.o(.text) refers to _printf_intcommon.o(.text) for _printf_int_common
    _printf_hex_int_ll_ptr.o(.text) refers to _printf_hex_int_ll_ptr.o(.constdata) for .constdata
    __printf_flags.o(.text) refers to _printf_percent.o(.ARM.Collect$$_printf_percent$$00000000) for _printf_percent
    __printf_flags.o(.text) refers to __printf_flags.o(.constdata) for .constdata
    __printf_ss.o(.text) refers to _printf_percent.o(.ARM.Collect$$_printf_percent$$00000000) for _printf_percent
    __printf_flags_ss.o(.text) refers to _printf_percent.o(.ARM.Collect$$_printf_percent$$00000000) for _printf_percent
    __printf_flags_ss.o(.text) refers to __printf_flags_ss.o(.constdata) for .constdata
    __printf_wp.o(.text) refers to __printf_wp.o(i._is_digit) for _is_digit
    __printf_wp.o(.text) refers to _printf_percent.o(.ARM.Collect$$_printf_percent$$00000000) for _printf_percent
    __printf_flags_wp.o(.text) refers to __printf_wp.o(i._is_digit) for _is_digit
    __printf_flags_wp.o(.text) refers to _printf_percent.o(.ARM.Collect$$_printf_percent$$00000000) for _printf_percent
    __printf_flags_wp.o(.text) refers to __printf_flags_wp.o(.constdata) for .constdata
    __printf_ss_wp.o(.text) refers to __printf_wp.o(i._is_digit) for _is_digit
    __printf_ss_wp.o(.text) refers to _printf_percent.o(.ARM.Collect$$_printf_percent$$00000000) for _printf_percent
    __printf_flags_ss_wp.o(.text) refers to __printf_wp.o(i._is_digit) for _is_digit
    __printf_flags_ss_wp.o(.text) refers to _printf_percent.o(.ARM.Collect$$_printf_percent$$00000000) for _printf_percent
    __printf_flags_ss_wp.o(.text) refers to __printf_flags_ss_wp.o(.constdata) for .constdata
    _printf_c.o(.ARM.Collect$$_printf_percent$$00000013) refers (Weak) to _printf_char.o(.text) for _printf_char
    _printf_s.o(.ARM.Collect$$_printf_percent$$00000014) refers (Weak) to _printf_char.o(.text) for _printf_string
    _printf_n.o(.ARM.Collect$$_printf_percent$$00000001) refers (Weak) to _printf_charcount.o(.text) for _printf_charcount
    _printf_p.o(.ARM.Collect$$_printf_percent$$00000002) refers (Weak) to _printf_hex_ptr.o(.text) for _printf_hex_ptr
    _printf_d.o(.ARM.Collect$$_printf_percent$$00000009) refers (Weak) to _printf_dec.o(.text) for _printf_int_dec
    _printf_percent.o(.ARM.Collect$$_printf_percent$$00000000) refers (Special) to _printf_percent_end.o(.ARM.Collect$$_printf_percent$$00000017) for _printf_percent_end
    __0sscanf.o(.text) refers to scanf_char.o(.text) for __vfscanf_char
    __0sscanf.o(.text) refers to _sgetc.o(.text) for _sgetc
    _scanf_int.o(.text) refers to _chval.o(.text) for _chval
    atoi.o(.text) refers to rt_errno_addr_intlibspace.o(.text) for __aeabi_errno_addr
    atoi.o(.text) refers to strtol.o(.text) for strtol
    fclose.o(.text) refers to stdio.o(.text) for _fflush
    fclose.o(.text) refers to retarget.o(i._sys_close) for _sys_close
    fclose.o(.text) refers to h1_free.o(.text) for free
    fclose.o(.text) refers to rt_memclr_w.o(.text) for __aeabi_memclr4
    fclose_locked.o(.text) refers to fclose.o(.text) for _fclose_internal
    fclose_locked.o(.text) refers to streamlock.o(.data) for _stream_list_lock
    strncasecmp.o(.text) refers to tolower.o(.text) for tolower
    rt_memcpy_v6.o(.text) refers to rt_memcpy_w.o(.text) for __aeabi_memcpy4
    aeabi_memset.o(.text) refers to rt_memclr.o(.text) for _memset
    rt_memclr.o(.text) refers to rt_memclr_w.o(.text) for _memset_w
    __main.o(!!!main) refers to __rtentry.o(.ARM.Collect$$rtentry$$00000000) for __rt_entry
    __rtentry.o(.ARM.Collect$$rtentry$$00000000) refers (Special) to __rtentry2.o(.ARM.Collect$$rtentry$$0000000A) for __rt_entry_li
    __rtentry.o(.ARM.Collect$$rtentry$$00000000) refers (Special) to __rtentry2.o(.ARM.Collect$$rtentry$$0000000D) for __rt_entry_main
    __rtentry.o(.ARM.Collect$$rtentry$$00000000) refers (Special) to __rtentry2.o(.ARM.Collect$$rtentry$$0000000C) for __rt_entry_postli_1
    __rtentry.o(.ARM.Collect$$rtentry$$00000000) refers (Special) to __rtentry2.o(.ARM.Collect$$rtentry$$00000009) for __rt_entry_postsh_1
    __rtentry.o(.ARM.Collect$$rtentry$$00000000) refers (Special) to __rtentry2.o(.ARM.Collect$$rtentry$$00000002) for __rt_entry_presh_1
    __rtentry.o(.ARM.Collect$$rtentry$$00000000) refers (Special) to __rtentry4.o(.ARM.Collect$$rtentry$$00000004) for __rt_entry_sh
    aeabi_ldiv0_sigfpe.o(.text) refers to rt_div0.o(.text) for __rt_div0
    rt_errno_addr.o(.text) refers to rt_errno_addr.o(.bss) for __aeabi_errno_addr_data
    rt_errno_addr_intlibspace.o(.text) refers to libspace.o(.bss) for __libspace_start
    free.o(.text) refers (Special) to hguard.o(.text) for __heap$guard
    free.o(.text) refers to rt_heap_descriptor_intlibspace.o(.text) for __rt_heap_descriptor
    free.o(.text) refers to heapstubs.o(.text) for __Heap_Free
    h1_free.o(.text) refers to rt_heap_descriptor_intlibspace.o(.text) for __rt_heap_descriptor
    h1_free_mt.o(.text) refers to rt_heap_descriptor_intlibspace.o(.text) for __rt_heap_descriptor
    heap2.o(i._FDIterate) refers to heap2.o(.conststring) for .conststring
    heap2.o(i.___Heap_ProvideMemory$realtime) refers to fdtree.o(i._FDTree_Delete) for _FDTree_Delete
    heap2.o(i.___Heap_ProvideMemory$realtime) refers to fdtree.o(i._FDTree_Insert) for _FDTree_Insert
    heap2.o(i.___Heap_Stats$realtime) refers to heap2.o(i._Heap2_StatsIterate) for _Heap2_StatsIterate
    heap2.o(i.___Heap_Valid$realtime) refers to heap2.o(i._FDIterate) for _FDIterate
    heap2.o(i.___Heap_Valid$realtime) refers to heap2.o(.conststring) for .conststring
    heap2.o(i._free$realtime) refers to rt_heap_descriptor_intlibspace.o(.text) for __rt_heap_descriptor
    heap2.o(i._free$realtime) refers to fdtree.o(i._FDTree_Delete) for _FDTree_Delete
    heap2.o(i._free$realtime) refers to fdtree.o(i._FDTree_Insert) for _FDTree_Insert
    heap2.o(i._malloc$realtime) refers to rt_heap_descriptor_intlibspace.o(.text) for __rt_heap_descriptor
    heap2.o(i._malloc$realtime) refers to fdtree.o(i._FDTree_FindFirst) for _FDTree_FindFirst
    heap2.o(i._malloc$realtime) refers to init_alloc.o(.text) for __Heap_Full
    heap2.o(i._malloc$realtime) refers to fdtree.o(i._FDTree_RemoveNode) for _FDTree_RemoveNode
    heap2.o(i._malloc$realtime) refers to fdtree.o(i._FDTree_Insert) for _FDTree_Insert
    heap2.o(i._posix_memalign$realtime) refers to rt_heap_descriptor_intlibspace.o(.text) for __rt_heap_descriptor
    heap2.o(i._posix_memalign$realtime) refers to fdtree.o(i._FDTree_FindFirst) for _FDTree_FindFirst
    heap2.o(i._posix_memalign$realtime) refers to init_alloc.o(.text) for __Heap_Full
    heap2.o(i._posix_memalign$realtime) refers to fdtree.o(i._FDTree_RemoveNode) for _FDTree_RemoveNode
    heap2.o(i._posix_memalign$realtime) refers to fdtree.o(i._FDTree_Insert) for _FDTree_Insert
    heap2.o(i._realloc$realtime) refers to rt_heap_descriptor_intlibspace.o(.text) for __rt_heap_descriptor
    heap2.o(i._realloc$realtime) refers to fdtree.o(i._FDTree_Insert) for _FDTree_Insert
    heap2.o(i._realloc$realtime) refers to h1_free.o(.text) for free
    heap2.o(i._realloc$realtime) refers to h1_alloc.o(.text) for malloc
    heap2.o(i._realloc$realtime) refers to fdtree.o(i._FDTree_Delete) for _FDTree_Delete
    heap2.o(i._realloc$realtime) refers to rt_memcpy_w.o(.text) for __aeabi_memcpy4
    heap2mt.o(i._FDIterate) refers to heap2mt.o(.conststring) for .conststring
    heap2mt.o(i.___Heap_Initialize$realtime$concurrent) refers to mutex_dummy.o(.text) for _mutex_initialize
    heap2mt.o(i.___Heap_ProvideMemory$realtime$concurrent) refers to fdtree.o(i._FDTree_Delete) for _FDTree_Delete
    heap2mt.o(i.___Heap_ProvideMemory$realtime$concurrent) refers to fdtree.o(i._FDTree_Insert) for _FDTree_Insert
    heap2mt.o(i.___Heap_Stats$realtime$concurrent) refers to heap2mt.o(i._Heap2_StatsIterate) for _Heap2_StatsIterate
    heap2mt.o(i.___Heap_Valid$realtime$concurrent) refers to heap2mt.o(i._FDIterate) for _FDIterate
    heap2mt.o(i.___Heap_Valid$realtime$concurrent) refers to heap2mt.o(.conststring) for .conststring
    heap2mt.o(i._free$realtime$concurrent) refers to rt_heap_descriptor_intlibspace.o(.text) for __rt_heap_descriptor
    heap2mt.o(i._free$realtime$concurrent) refers to fdtree.o(i._FDTree_Delete) for _FDTree_Delete
    heap2mt.o(i._free$realtime$concurrent) refers to fdtree.o(i._FDTree_Insert) for _FDTree_Insert
    heap2mt.o(i._malloc$realtime$concurrent) refers to rt_heap_descriptor_intlibspace.o(.text) for __rt_heap_descriptor
    heap2mt.o(i._malloc$realtime$concurrent) refers to fdtree.o(i._FDTree_FindFirst) for _FDTree_FindFirst
    heap2mt.o(i._malloc$realtime$concurrent) refers to init_alloc.o(.text) for __Heap_Full
    heap2mt.o(i._malloc$realtime$concurrent) refers to fdtree.o(i._FDTree_RemoveNode) for _FDTree_RemoveNode
    heap2mt.o(i._malloc$realtime$concurrent) refers to fdtree.o(i._FDTree_Insert) for _FDTree_Insert
    heap2mt.o(i._posix_memalign$realtime$concurrent) refers to rt_heap_descriptor_intlibspace.o(.text) for __rt_heap_descriptor
    heap2mt.o(i._posix_memalign$realtime$concurrent) refers to fdtree.o(i._FDTree_FindFirst) for _FDTree_FindFirst
    heap2mt.o(i._posix_memalign$realtime$concurrent) refers to init_alloc.o(.text) for __Heap_Full
    heap2mt.o(i._posix_memalign$realtime$concurrent) refers to fdtree.o(i._FDTree_RemoveNode) for _FDTree_RemoveNode
    heap2mt.o(i._posix_memalign$realtime$concurrent) refers to fdtree.o(i._FDTree_Insert) for _FDTree_Insert
    heap2mt.o(i._realloc$realtime$concurrent) refers to rt_heap_descriptor_intlibspace.o(.text) for __rt_heap_descriptor
    heap2mt.o(i._realloc$realtime$concurrent) refers to fdtree.o(i._FDTree_Insert) for _FDTree_Insert
    heap2mt.o(i._realloc$realtime$concurrent) refers to h1_free.o(.text) for free
    heap2mt.o(i._realloc$realtime$concurrent) refers to h1_alloc.o(.text) for malloc
    heap2mt.o(i._realloc$realtime$concurrent) refers to fdtree.o(i._FDTree_Delete) for _FDTree_Delete
    heap2mt.o(i._realloc$realtime$concurrent) refers to rt_memcpy_w.o(.text) for __aeabi_memcpy4
    tolower.o(.text) refers to rt_ctype_table.o(.text) for __rt_ctype_table
    _printf_intcommon.o(.text) refers (Weak) to _printf_pad.o(.text) for _printf_pre_padding
    _printf_intcommon.o(.text) refers (Weak) to _printf_pad.o(.text) for _printf_pre_padding
    _printf_intcommon.o(.text) refers (Weak) to _printf_pad.o(.text) for _printf_post_padding
    _printf_char_common.o(.text) refers to __printf_flags_ss_wp.o(.text) for __printf
    _printf_char.o(.text) refers (Weak) to _printf_str.o(.text) for _printf_str
    scanf_char.o(.text) refers to _scanf.o(.text) for __vfscanf
    scanf_char.o(.text) refers to isspace.o(.text) for isspace
    strtol.o(.text) refers to rt_ctype_table.o(.text) for __rt_ctype_table
    strtol.o(.text) refers to _strtoul.o(.text) for _strtoul
    strtol.o(.text) refers to rt_errno_addr_intlibspace.o(.text) for __aeabi_errno_addr
    stdio.o(.text) refers to retarget.o(i._sys_seek) for _sys_seek
    stdio.o(.text) refers to retarget.o(i._sys_write) for _sys_write
    streamlock.o(.data) refers (Special) to initio.o(.text) for _initio
    libspace.o(.text) refers to libspace.o(.bss) for __libspace_start
    __rtentry2.o(.ARM.Collect$$rtentry$$00000008) refers to boardinit2.o(.text) for _platform_post_stackheap_init
    __rtentry2.o(.ARM.Collect$$rtentry$$0000000A) refers to libinit.o(.ARM.Collect$$libinit$$00000000) for __rt_lib_init
    __rtentry2.o(.ARM.Collect$$rtentry$$0000000B) refers to boardinit3.o(.text) for _platform_post_lib_init
    __rtentry2.o(.ARM.Collect$$rtentry$$0000000D) refers to main.o(i.main) for main
    __rtentry2.o(.ARM.Collect$$rtentry$$0000000D) refers to exit.o(.text) for exit
    __rtentry2.o(.ARM.exidx) refers to __rtentry2.o(.ARM.Collect$$rtentry$$00000001) for .ARM.Collect$$rtentry$$00000001
    __rtentry2.o(.ARM.exidx) refers to __rtentry2.o(.ARM.Collect$$rtentry$$00000008) for .ARM.Collect$$rtentry$$00000008
    __rtentry2.o(.ARM.exidx) refers to __rtentry2.o(.ARM.Collect$$rtentry$$0000000A) for .ARM.Collect$$rtentry$$0000000A
    __rtentry2.o(.ARM.exidx) refers to __rtentry2.o(.ARM.Collect$$rtentry$$0000000B) for .ARM.Collect$$rtentry$$0000000B
    __rtentry2.o(.ARM.exidx) refers to __rtentry2.o(.ARM.Collect$$rtentry$$0000000D) for .ARM.Collect$$rtentry$$0000000D
    __rtentry4.o(.ARM.Collect$$rtentry$$00000004) refers to sys_stackheap_outer.o(.text) for __user_setup_stackheap
    __rtentry4.o(.ARM.exidx) refers to __rtentry4.o(.ARM.Collect$$rtentry$$00000004) for .ARM.Collect$$rtentry$$00000004
    rt_ctype_table.o(.text) refers to rt_locale_intlibspace.o(.text) for __rt_locale
    rt_ctype_table.o(.text) refers to lc_ctype_c.o(locale$$code) for _get_lc_ctype
    rt_div0.o(.text) refers to defsig_fpe_outer.o(.text) for __rt_SIGFPE
    rt_heap_descriptor.o(.text) refers to rt_heap_descriptor.o(.bss) for __rt_heap_descriptor_data
    rt_heap_descriptor_intlibspace.o(.text) refers to libspace.o(.bss) for __libspace_start
    init_alloc.o(.text) refers (Special) to hguard.o(.text) for __heap$guard
    init_alloc.o(.text) refers (Special) to libinit2.o(.ARM.Collect$$libinit$$00000005) for __rt_lib_init_heap_2
    init_alloc.o(.text) refers (Special) to maybetermalloc1.o(.emb_text) for _maybe_terminate_alloc
    init_alloc.o(.text) refers to h1_extend.o(.text) for __Heap_ProvideMemory
    init_alloc.o(.text) refers to defsig_rtmem_outer.o(.text) for __rt_SIGRTMEM
    init_alloc.o(.text) refers to rt_heap_descriptor_intlibspace.o(.text) for __rt_heap_descriptor
    init_alloc.o(.text) refers to h1_init.o(.text) for __Heap_Initialize
    malloc.o(.text) refers (Special) to hguard.o(.text) for __heap$guard
    malloc.o(.text) refers (Special) to init_alloc.o(.text) for _init_alloc
    malloc.o(.text) refers to rt_heap_descriptor_intlibspace.o(.text) for __rt_heap_descriptor
    malloc.o(.text) refers to heapstubs.o(.text) for __Heap_Alloc
    h1_alloc.o(.text) refers (Special) to h1_init.o(.text) for __Heap_Initialize
    h1_alloc.o(.text) refers to rt_heap_descriptor_intlibspace.o(.text) for __rt_heap_descriptor
    h1_alloc.o(.text) refers to init_alloc.o(.text) for __Heap_Full
    h1_alloc_mt.o(.text) refers (Special) to h1_init.o(.text) for __Heap_Initialize
    h1_alloc_mt.o(.text) refers to init_alloc.o(.text) for __Heap_Full
    h1_alloc_mt.o(.text) refers to rt_heap_descriptor_intlibspace.o(.text) for __rt_heap_descriptor
    isspace.o(.text) refers to rt_ctype_table.o(.text) for __rt_ctype_table
    _scanf.o(.text) refers (Weak) to _scanf_int.o(.text) for _scanf_int
    _strtoul.o(.text) refers to _chval.o(.text) for _chval
    _strtoul.o(.text) refers to rt_errno_addr_intlibspace.o(.text) for __aeabi_errno_addr
    initio.o(.text) refers (Special) to libinit2.o(.ARM.Collect$$libinit$$00000024) for __rt_lib_init_stdio_2
    initio.o(.text) refers (Special) to libshutdown2.o(.ARM.Collect$$libshutdown$$00000003) for __rt_lib_shutdown_stdio_2
    initio.o(.text) refers to rt_memclr_w.o(.text) for __aeabi_memclr4
    initio.o(.text) refers to fopen.o(.text) for freopen
    initio.o(.text) refers to defsig_rtred_outer.o(.text) for __rt_SIGRTRED
    initio.o(.text) refers to setvbuf.o(.text) for setvbuf
    initio.o(.text) refers to fclose.o(.text) for _fclose_internal
    initio.o(.text) refers to h1_free.o(.text) for free
    initio.o(.text) refers to stdio_streams.o(.bss) for __stdin
    initio.o(.text) refers to stdio_streams.o(.bss) for __stdout
    initio.o(.text) refers to stdio_streams.o(.bss) for __stderr
    initio.o(.text) refers to stdio_streams.o(.data) for __aeabi_stdin
    initio.o(.text) refers to stdio_streams.o(.data) for __aeabi_stdout
    initio.o(.text) refers to stdio_streams.o(.data) for __aeabi_stderr
    initio.o(.text) refers to retarget.o(.constdata) for __stdin_name
    initio_locked.o(.text) refers (Special) to libinit2.o(.ARM.Collect$$libinit$$00000024) for __rt_lib_init_stdio_2
    initio_locked.o(.text) refers (Special) to libshutdown2.o(.ARM.Collect$$libshutdown$$00000003) for __rt_lib_shutdown_stdio_2
    initio_locked.o(.text) refers to rt_memclr_w.o(.text) for __aeabi_memclr4
    initio_locked.o(.text) refers to fopen.o(.text) for freopen
    initio_locked.o(.text) refers to defsig_rtred_outer.o(.text) for __rt_SIGRTRED
    initio_locked.o(.text) refers to setvbuf.o(.text) for setvbuf
    initio_locked.o(.text) refers to fclose.o(.text) for _fclose_internal
    initio_locked.o(.text) refers to h1_free.o(.text) for free
    initio_locked.o(.text) refers to stdio_streams.o(.bss) for __stdin
    initio_locked.o(.text) refers to stdio_streams.o(.bss) for __stdout
    initio_locked.o(.text) refers to stdio_streams.o(.bss) for __stderr
    initio_locked.o(.text) refers to stdio_streams.o(.data) for __aeabi_stdin
    initio_locked.o(.text) refers to stdio_streams.o(.data) for __aeabi_stdout
    initio_locked.o(.text) refers to stdio_streams.o(.data) for __aeabi_stderr
    initio_locked.o(.text) refers to streamlock.o(.data) for _stream_list_lock
    initio_locked.o(.text) refers to retarget.o(.constdata) for __stdin_name
    sys_stackheap_outer.o(.text) refers to libspace.o(.text) for __user_perproc_libspace
    sys_stackheap_outer.o(.text) refers to startup_lpc17xx.o(.text) for __user_initial_stackheap
    rt_locale.o(.text) refers to rt_locale.o(.bss) for __rt_locale_data
    rt_locale_intlibspace.o(.text) refers to libspace.o(.bss) for __libspace_start
    maybetermalloc2.o(.emb_text) refers (Special) to term_alloc.o(.text) for _terminate_alloc
    h1_extend.o(.text) refers to h1_free.o(.text) for free
    h1_init_mt.o(.text) refers to mutex_dummy.o(.text) for _mutex_initialize
    h1_extend_mt.o(.text) refers to h1_free_mt.o(.text) for _free_internal
    fopen.o(.text) refers to fclose.o(.text) for _fclose_internal
    fopen.o(.text) refers to retarget.o(i._sys_open) for _sys_open
    fopen.o(.text) refers to fseek.o(.text) for _fseek
    fopen.o(.text) refers to h1_alloc.o(.text) for malloc
    fopen.o(.text) refers to rt_memclr_w.o(.text) for __aeabi_memclr4
    fopen.o(.text) refers to stdio_streams.o(.bss) for __stdin
    stdio_streams.o(.bss) refers (Special) to initio.o(.text) for _initio
    stdio_streams.o(.bss) refers (Special) to initio.o(.text) for _initio
    stdio_streams.o(.bss) refers (Special) to initio.o(.text) for _initio
    stdio_streams.o(.data) refers (Special) to initio.o(.text) for _initio
    stdio_streams.o(.data) refers (Special) to initio.o(.text) for _initio
    stdio_streams.o(.data) refers (Special) to initio.o(.text) for _initio
    fopen_locked.o(.text) refers to fclose.o(.text) for _fclose_internal
    fopen_locked.o(.text) refers to retarget.o(i._sys_open) for _sys_open
    fopen_locked.o(.text) refers to fseek.o(.text) for _fseek
    fopen_locked.o(.text) refers to h1_alloc.o(.text) for malloc
    fopen_locked.o(.text) refers to rt_memclr_w.o(.text) for __aeabi_memclr4
    fopen_locked.o(.text) refers to streamlock.o(.data) for _stream_list_lock
    fopen_locked.o(.text) refers to stdio_streams.o(.bss) for __stdin
    lc_ctype_c.o(locale$$data) refers (Special) to libinit2.o(.ARM.Collect$$libinit$$00000012) for __rt_lib_init_lc_ctype_2
    lc_ctype_c.o(locale$$code) refers (Special) to libinit2.o(.ARM.Collect$$libinit$$00000012) for __rt_lib_init_lc_ctype_2
    lc_ctype_c.o(locale$$code) refers to strcmpv7m.o(.text) for strcmp
    lc_ctype_c.o(locale$$code) refers to lc_ctype_c.o(locale$$data) for __lcctype_c_name
    exit.o(.text) refers to rtexit.o(.ARM.Collect$$rtexit$$00000000) for __rt_exit
    defsig_fpe_outer.o(.text) refers to defsig_fpe_inner.o(.text) for __rt_SIGFPE_inner
    defsig_fpe_outer.o(.text) refers to defsig_exit.o(.text) for __sig_exit
    defsig_fpe_formal.o(.text) refers to rt_raise.o(.text) for __rt_raise
    defsig_rtred_outer.o(.text) refers to defsig_rtred_inner.o(.text) for __rt_SIGRTRED_inner
    defsig_rtred_outer.o(.text) refers to defsig_exit.o(.text) for __sig_exit
    defsig_rtred_formal.o(.text) refers to rt_raise.o(.text) for __rt_raise
    defsig_rtmem_outer.o(.text) refers to defsig_rtmem_inner.o(.text) for __rt_SIGRTMEM_inner
    defsig_rtmem_outer.o(.text) refers to defsig_exit.o(.text) for __sig_exit
    defsig_rtmem_formal.o(.text) refers to rt_raise.o(.text) for __rt_raise
    heapauxa.o(.text) refers to heapauxa.o(.data) for .data
    _get_argv.o(.text) refers (Special) to hrguard.o(.text) for __heap_region$guard
    _get_argv.o(.text) refers to h1_alloc.o(.text) for malloc
    _get_argv.o(.text) refers to defsig_rtmem_outer.o(.text) for __rt_SIGRTMEM
    _get_argv.o(.text) refers to retarget.o(i._sys_command_string) for _sys_command_string
    libinit.o(.ARM.Collect$$libinit$$00000000) refers (Special) to libinit2.o(.ARM.Collect$$libinit$$0000002E) for __rt_lib_init_alloca_1
    libinit.o(.ARM.Collect$$libinit$$00000000) refers (Special) to libinit2.o(.ARM.Collect$$libinit$$0000002C) for __rt_lib_init_argv_1
    libinit.o(.ARM.Collect$$libinit$$00000000) refers (Special) to libinit2.o(.ARM.Collect$$libinit$$0000001B) for __rt_lib_init_atexit_1
    libinit.o(.ARM.Collect$$libinit$$00000000) refers (Special) to libinit2.o(.ARM.Collect$$libinit$$00000021) for __rt_lib_init_clock_1
    libinit.o(.ARM.Collect$$libinit$$00000000) refers (Special) to libinit2.o(.ARM.Collect$$libinit$$00000032) for __rt_lib_init_cpp_1
    libinit.o(.ARM.Collect$$libinit$$00000000) refers (Special) to libinit2.o(.ARM.Collect$$libinit$$00000030) for __rt_lib_init_exceptions_1
    libinit.o(.ARM.Collect$$libinit$$00000000) refers (Special) to libinit2.o(.ARM.Collect$$libinit$$00000002) for __rt_lib_init_fp_1
    libinit.o(.ARM.Collect$$libinit$$00000000) refers (Special) to libinit2.o(.ARM.Collect$$libinit$$0000001F) for __rt_lib_init_fp_trap_1
    libinit.o(.ARM.Collect$$libinit$$00000000) refers (Special) to libinit2.o(.ARM.Collect$$libinit$$00000023) for __rt_lib_init_getenv_1
    libinit.o(.ARM.Collect$$libinit$$00000000) refers (Special) to libinit2.o(.ARM.Collect$$libinit$$0000000A) for __rt_lib_init_heap_1
    libinit.o(.ARM.Collect$$libinit$$00000000) refers (Special) to libinit2.o(.ARM.Collect$$libinit$$00000011) for __rt_lib_init_lc_collate_1
    libinit.o(.ARM.Collect$$libinit$$00000000) refers (Special) to libinit2.o(.ARM.Collect$$libinit$$00000013) for __rt_lib_init_lc_ctype_1
    libinit.o(.ARM.Collect$$libinit$$00000000) refers (Special) to libinit2.o(.ARM.Collect$$libinit$$00000015) for __rt_lib_init_lc_monetary_1
    libinit.o(.ARM.Collect$$libinit$$00000000) refers (Special) to libinit2.o(.ARM.Collect$$libinit$$00000017) for __rt_lib_init_lc_numeric_1
    libinit.o(.ARM.Collect$$libinit$$00000000) refers (Special) to libinit2.o(.ARM.Collect$$libinit$$00000019) for __rt_lib_init_lc_time_1
    libinit.o(.ARM.Collect$$libinit$$00000000) refers (Special) to libinit2.o(.ARM.Collect$$libinit$$00000004) for __rt_lib_init_preinit_1
    libinit.o(.ARM.Collect$$libinit$$00000000) refers (Special) to libinit2.o(.ARM.Collect$$libinit$$0000000E) for __rt_lib_init_rand_1
    libinit.o(.ARM.Collect$$libinit$$00000000) refers (Special) to libinit2.o(.ARM.Collect$$libinit$$00000033) for __rt_lib_init_return
    libinit.o(.ARM.Collect$$libinit$$00000000) refers (Special) to libinit2.o(.ARM.Collect$$libinit$$0000001D) for __rt_lib_init_signal_1
    libinit.o(.ARM.Collect$$libinit$$00000000) refers (Special) to libinit2.o(.ARM.Collect$$libinit$$00000025) for __rt_lib_init_stdio_1
    libinit.o(.ARM.Collect$$libinit$$00000000) refers (Special) to libinit2.o(.ARM.Collect$$libinit$$0000000C) for __rt_lib_init_user_alloc_1
    libinit2.o(.ARM.Collect$$libinit$$00000005) refers (Weak) to init_alloc.o(.text) for _init_alloc
    libinit2.o(.ARM.Collect$$libinit$$0000000F) refers (Weak) to rt_locale_intlibspace.o(.text) for __rt_locale
    libinit2.o(.ARM.Collect$$libinit$$00000010) refers to libinit2.o(.ARM.Collect$$libinit$$0000000F) for .ARM.Collect$$libinit$$0000000F
    libinit2.o(.ARM.Collect$$libinit$$00000012) refers to libinit2.o(.ARM.Collect$$libinit$$0000000F) for .ARM.Collect$$libinit$$0000000F
    libinit2.o(.ARM.Collect$$libinit$$00000012) refers (Weak) to lc_ctype_c.o(locale$$code) for _get_lc_ctype
    libinit2.o(.ARM.Collect$$libinit$$00000014) refers to libinit2.o(.ARM.Collect$$libinit$$0000000F) for .ARM.Collect$$libinit$$0000000F
    libinit2.o(.ARM.Collect$$libinit$$00000016) refers to libinit2.o(.ARM.Collect$$libinit$$0000000F) for .ARM.Collect$$libinit$$0000000F
    libinit2.o(.ARM.Collect$$libinit$$00000018) refers to libinit2.o(.ARM.Collect$$libinit$$0000000F) for .ARM.Collect$$libinit$$0000000F
    libinit2.o(.ARM.Collect$$libinit$$00000024) refers (Weak) to initio.o(.text) for _initio
    libinit2.o(.ARM.Collect$$libinit$$00000026) refers to argv_veneer.o(.emb_text) for __ARM_argv_veneer
    libinit2.o(.ARM.Collect$$libinit$$00000027) refers to argv_veneer.o(.emb_text) for __ARM_argv_veneer
    libshutdown2.o(.ARM.Collect$$libshutdown$$00000003) refers (Weak) to initio.o(.text) for _terminateio
    libshutdown2.o(.ARM.Collect$$libshutdown$$0000000D) refers (Weak) to term_alloc.o(.text) for _terminate_alloc
    rtexit.o(.ARM.Collect$$rtexit$$00000000) refers (Special) to rtexit2.o(.ARM.Collect$$rtexit$$00000004) for __rt_exit_exit
    rtexit.o(.ARM.Collect$$rtexit$$00000000) refers (Special) to rtexit2.o(.ARM.Collect$$rtexit$$00000003) for __rt_exit_ls
    rtexit.o(.ARM.Collect$$rtexit$$00000000) refers (Special) to rtexit2.o(.ARM.Collect$$rtexit$$00000002) for __rt_exit_prels_1
    rtexit.o(.ARM.exidx) refers (Special) to rtexit2.o(.ARM.Collect$$rtexit$$00000004) for __rt_exit_exit
    rtexit.o(.ARM.exidx) refers (Special) to rtexit2.o(.ARM.Collect$$rtexit$$00000003) for __rt_exit_ls
    rtexit.o(.ARM.exidx) refers (Special) to rtexit2.o(.ARM.Collect$$rtexit$$00000002) for __rt_exit_prels_1
    rtexit.o(.ARM.exidx) refers to rtexit.o(.ARM.Collect$$rtexit$$00000000) for .ARM.Collect$$rtexit$$00000000
    rt_raise.o(.text) refers to __raise.o(.text) for __raise
    rt_raise.o(.text) refers to retarget.o(i._sys_exit) for _sys_exit
    term_alloc.o(.text) refers (Special) to libshutdown2.o(.ARM.Collect$$libshutdown$$0000000E) for __rt_lib_shutdown_heap_2
    term_alloc.o(.text) refers to rt_heap_descriptor_intlibspace.o(.text) for __rt_heap_descriptor
    term_alloc.o(.text) refers to h1_final.o(.text) for __Heap_Finalize
    fseek.o(.text) refers to retarget.o(i._sys_istty) for _sys_istty
    fseek.o(.text) refers to ftell.o(.text) for _ftell_internal
    fseek.o(.text) refers to retarget.o(i._sys_flen) for _sys_flen
    fseek.o(.text) refers to stdio.o(.text) for _seterr
    defsig_exit.o(.text) refers to retarget.o(i._sys_exit) for _sys_exit
    defsig_fpe_inner.o(.text) refers to defsig_general.o(.text) for __default_signal_display
    defsig_rtred_inner.o(.text) refers to defsig_general.o(.text) for __default_signal_display
    defsig_rtmem_inner.o(.text) refers to defsig_general.o(.text) for __default_signal_display
    argv_veneer.o(.emb_text) refers to no_argv.o(.text) for __ARM_get_argv
    rtexit2.o(.ARM.Collect$$rtexit$$00000003) refers to libshutdown.o(.ARM.Collect$$libshutdown$$00000000) for __rt_lib_shutdown
    rtexit2.o(.ARM.Collect$$rtexit$$00000004) refers to retarget.o(i._sys_exit) for _sys_exit
    rtexit2.o(.ARM.exidx) refers to rtexit2.o(.ARM.Collect$$rtexit$$00000001) for .ARM.Collect$$rtexit$$00000001
    rtexit2.o(.ARM.exidx) refers to rtexit2.o(.ARM.Collect$$rtexit$$00000003) for .ARM.Collect$$rtexit$$00000003
    rtexit2.o(.ARM.exidx) refers to rtexit2.o(.ARM.Collect$$rtexit$$00000004) for .ARM.Collect$$rtexit$$00000004
    ftell.o(.text) refers to rt_errno_addr_intlibspace.o(.text) for __aeabi_errno_addr
    __raise.o(.text) refers to defsig.o(CL$$defsig) for __default_signal_handler
    defsig_general.o(.text) refers to retarget.o(i._ttywrch) for _ttywrch
    _get_argv_nomalloc.o(.text) refers (Special) to hrguard.o(.text) for __heap_region$guard
    _get_argv_nomalloc.o(.text) refers to defsig_rtmem_outer.o(.text) for __rt_SIGRTMEM
    _get_argv_nomalloc.o(.text) refers to retarget.o(i._sys_command_string) for _sys_command_string
    defsig.o(CL$$defsig) refers to defsig_fpe_inner.o(.text) for __rt_SIGFPE_inner
    defsig.o(CL$$defsig) refers to defsig_rtred_inner.o(.text) for __rt_SIGRTRED_inner
    defsig.o(CL$$defsig) refers to defsig_rtmem_inner.o(.text) for __rt_SIGRTMEM_inner
    libshutdown.o(.ARM.Collect$$libshutdown$$00000000) refers (Special) to libshutdown2.o(.ARM.Collect$$libshutdown$$00000002) for __rt_lib_shutdown_cpp_1
    libshutdown.o(.ARM.Collect$$libshutdown$$00000000) refers (Special) to libshutdown2.o(.ARM.Collect$$libshutdown$$00000007) for __rt_lib_shutdown_fp_trap_1
    libshutdown.o(.ARM.Collect$$libshutdown$$00000000) refers (Special) to libshutdown2.o(.ARM.Collect$$libshutdown$$0000000F) for __rt_lib_shutdown_heap_1
    libshutdown.o(.ARM.Collect$$libshutdown$$00000000) refers (Special) to libshutdown2.o(.ARM.Collect$$libshutdown$$00000010) for __rt_lib_shutdown_return
    libshutdown.o(.ARM.Collect$$libshutdown$$00000000) refers (Special) to libshutdown2.o(.ARM.Collect$$libshutdown$$0000000A) for __rt_lib_shutdown_signal_1
    libshutdown.o(.ARM.Collect$$libshutdown$$00000000) refers (Special) to libshutdown2.o(.ARM.Collect$$libshutdown$$00000004) for __rt_lib_shutdown_stdio_1
    libshutdown.o(.ARM.Collect$$libshutdown$$00000000) refers (Special) to libshutdown2.o(.ARM.Collect$$libshutdown$$0000000C) for __rt_lib_shutdown_user_alloc_1
    defsig_abrt_inner.o(.text) refers to defsig_general.o(.text) for __default_signal_display
    defsig_stak_inner.o(.text) refers to defsig_general.o(.text) for __default_signal_display
    defsig_pvfn_inner.o(.text) refers to defsig_general.o(.text) for __default_signal_display
    defsig_cppl_inner.o(.text) refers to defsig_general.o(.text) for __default_signal_display
    defsig_segv_inner.o(.text) refers to defsig_general.o(.text) for __default_signal_display
    defsig_other.o(.text) refers to defsig_general.o(.text) for __default_signal_display
    fs_time.o(.ARM.RL_ARM1) refers to fs_time.o(.ARM.RL_ARM2) for .ARM.RL_ARM2
    fs_time.o(.ARM.RL_ARM2) refers to fs_time.o(.ARM.RL_ARM3) for .ARM.RL_ARM3
    fs_time.o(.ARM.RL_ARM3) refers to fs_time.o(.ARM.RL_ARM4) for .ARM.RL_ARM4
    fs_time.o(.ARM.RL_ARM4) refers to fs_time.o(.ARM.RL_ARM5) for .ARM.RL_ARM5
    fs_time.o(.ARM.RL_ARM5) refers to fs_time.o(.ARM.RL_ARM6) for .ARM.RL_ARM6
    fs_time.o(.ARM.RL_ARM6) refers to fs_time.o(.ARM.RL_ARM1) for .ARM.RL_ARM1


==============================================================================

Removing Unused input sections from the image.

    Removing file_config.o(i.efs_analyse), (4 bytes).
    Removing file_config.o(i.efs_check), (4 bytes).
    Removing file_config.o(i.efs_create), (4 bytes).
    Removing file_config.o(i.efs_defrag), (4 bytes).
    Removing file_config.o(i.efs_delete), (4 bytes).
    Removing file_config.o(i.efs_ensure), (4 bytes).
    Removing file_config.o(i.efs_find), (4 bytes).
    Removing file_config.o(i.efs_format), (4 bytes).
    Removing file_config.o(i.efs_free), (4 bytes).
    Removing file_config.o(i.efs_read), (4 bytes).
    Removing file_config.o(i.efs_rename), (4 bytes).
    Removing file_config.o(i.elink_delete), (4 bytes).
    Removing file_config.o(i.fat_jour_prep), (4 bytes).
    Removing file_config.o(i.fsj_init), (4 bytes).
    Removing file_config.o(i.fsj_set_space), (4 bytes).
    Removing retarget.o(i._sys_command_string), (2 bytes).
    Removing retarget.o(i._sys_ensure), (24 bytes).
    Removing retarget.o(i._sys_flen), (22 bytes).
    Removing retarget.o(i._sys_istty), (16 bytes).
    Removing retarget.o(i._sys_open), (88 bytes).
    Removing retarget.o(i._sys_read), (66 bytes).
    Removing retarget.o(i._sys_tmpnam), (6 bytes).
    Removing retarget.o(i._ttywrch), (12 bytes).
    Removing retarget.o(i.getkey), (8 bytes).
    Removing retarget.o(.constdata), (20 bytes).
    Removing spi_lpc17xx.o(.rev16_text), (4 bytes).
    Removing spi_lpc17xx.o(.revsh_text), (4 bytes).
    Removing serial.o(.rev16_text), (4 bytes).
    Removing serial.o(.revsh_text), (4 bytes).
    Removing serial.o(i.SER_GetChar), (24 bytes).
    Removing main.o(.rev16_text), (4 bytes).
    Removing main.o(.revsh_text), (4 bytes).
    Removing main.o(i.delay_ms), (30 bytes).
    Removing system_lpc17xx.o(.rev16_text), (4 bytes).
    Removing system_lpc17xx.o(.revsh_text), (4 bytes).
    Removing system_lpc17xx.o(i.SystemCoreClockUpdate), (424 bytes).
    Removing http_cgi.o(.constdata), (99 bytes).
    Removing net_config.o(i.sntp_get_time), (4 bytes).
    Removing emac_lpc17xx.o(.rev16_text), (4 bytes).
    Removing emac_lpc17xx.o(.revsh_text), (4 bytes).
    Removing fs_sys.o(.emb_text), (0 bytes).
    Removing fs_sys.o(i.__sys_ensure), (72 bytes).
    Removing fs_sys.o(i.__sys_flen), (64 bytes).
    Removing fs_sys.o(i.__sys_open), (208 bytes).
    Removing fs_sys.o(i.__sys_read), (96 bytes).
    Removing fs_mapi.o(i.fanalyse), (68 bytes).
    Removing fs_mapi.o(i.fattrib), (172 bytes).
    Removing fs_mapi.o(i.fcheck), (68 bytes).
    Removing fs_mapi.o(i.fdefrag), (108 bytes).
    Removing fs_mapi.o(i.fdelete), (96 bytes).
    Removing fs_mapi.o(i.fformat), (132 bytes).
    Removing fs_mapi.o(i.ffree), (76 bytes).
    Removing fs_mapi.o(i.finfo), (128 bytes).
    Removing fs_mapi.o(i.frename), (120 bytes).
    Removing fs_mapi.o(i.funinit), (148 bytes).
    Removing fs_mapi.o(i.fvol), (80 bytes).
    Removing fs_mapi.o(i.uninit_drv), (80 bytes).
    Removing at_icmp.o(i.icmp_ping), (104 bytes).
    Removing at_tcp.o(i.tcp_check_send), (56 bytes).
    Removing at_tcp.o(i.tcp_connect), (180 bytes).
    Removing at_tcp.o(i.tcp_get_adr), (28 bytes).
    Removing at_tcp.o(i.tcp_get_free_port), (68 bytes).
    Removing at_tcp.o(i.tcp_ioctl_socket), (60 bytes).
    Removing at_tcp.o(i.tcp_no_ack), (12 bytes).
    Removing at_tcp.o(i.tcp_release_socket), (56 bytes).
    Removing at_tcp.o(i.tcp_reset_tout), (44 bytes).
    Removing at_tcp.o(i.tcp_reset_window), (68 bytes).
    Removing at_udp.o(i.udp_free_buf), (6 bytes).
    Removing at_udp.o(i.udp_keep_buf), (60 bytes).
    Removing at_udp.o(i.udp_mcast_ttl), (44 bytes).
    Removing at_http.o(i.http_date), (116 bytes).
    Removing at_http.o(i.http_get_content_type), (36 bytes).
    Removing at_http.o(i.http_get_info), (88 bytes).
    Removing at_http.o(i.http_get_lang), (36 bytes).
    Removing at_http.o(i.http_get_session), (16 bytes).
    Removing at_http.o(i.http_get_user_id), (36 bytes).
    Removing at_ethernet.o(i.eth_get_adr), (4 bytes).
    Removing at_lib.o(i.asc_to_b64), (64 bytes).
    Removing at_lib.o(i.bin_to_b64), (66 bytes).
    Removing at_lib.o(i.encode_b64), (76 bytes).
    Removing at_lib.o(i.mem_rcopy), (32 bytes).
    Removing at_lib.o(i.nrd_u16be), (10 bytes).
    Removing at_lib.o(i.str_ucomp), (46 bytes).
    Removing at_system.o(.emb_text), (0 bytes).
    Removing fs_fat.o(i.alloc_new_clus), (74 bytes).
    Removing fs_fat.o(i.bs_write), (452 bytes).
    Removing fs_fat.o(i.clear_clus), (62 bytes).
    Removing fs_fat.o(i.create_dot_entries), (200 bytes).
    Removing fs_fat.o(i.create_lfn_entry), (228 bytes).
    Removing fs_fat.o(i.create_sfn_entry), (128 bytes).
    Removing fs_fat.o(i.fat_attrib), (152 bytes).
    Removing fs_fat.o(i.fat_delete), (186 bytes).
    Removing fs_fat.o(i.fat_format), (1086 bytes).
    Removing fs_fat.o(i.fat_free), (50 bytes).
    Removing fs_fat.o(i.fat_jour_init), (84 bytes).
    Removing fs_fat.o(i.fat_jour_prep), (148 bytes).
    Removing fs_fat.o(i.fat_open), (432 bytes).
    Removing fs_fat.o(i.fat_read), (202 bytes).
    Removing fs_fat.o(i.fat_read_label), (104 bytes).
    Removing fs_fat.o(i.fat_rename), (288 bytes).
    Removing fs_fat.o(i.frec_allocate), (172 bytes).
    Removing fs_fat.o(i.frec_delete), (88 bytes).
    Removing fs_fat.o(i.frec_delete_elink), (40 bytes).
    Removing fs_fat.o(i.get_RSVD), (36 bytes).
    Removing fs_fat.o(i.get_fen_val), (24 bytes).
    Removing fs_fat.o(i.get_param), (44 bytes).
    Removing fs_fat.o(i.is_dir_empty), (124 bytes).
    Removing fs_fat.o(i.j_chk_rsvd), (54 bytes).
    Removing fs_fat.o(i.j_clus_cnt), (10 bytes).
    Removing fs_fat.o(i.j_find_reg), (130 bytes).
    Removing fs_fat.o(i.j_find_rsvd), (168 bytes).
    Removing fs_fat.o(i.j_init_fats), (130 bytes).
    Removing fs_fat.o(i.j_low_boundary), (16 bytes).
    Removing fs_fat.o(i.j_mark_rsvd), (58 bytes).
    Removing fs_fat.o(i.j_rep_space), (42 bytes).
    Removing fs_fat.o(i.mbr_write), (192 bytes).
    Removing fs_fat.o(i.name_basis_gen), (180 bytes).
    Removing fs_fat.o(i.name_nt_gen), (296 bytes).
    Removing fs_fat.o(i.path_create), (540 bytes).
    Removing fs_fat.o(i.path_validate), (50 bytes).
    Removing fs_fat.o(i.read_cache), (122 bytes).
    Removing fs_fat.o(i.switch_fat), (56 bytes).
    Removing fs_fat.o(i.unlink_clus_chain), (312 bytes).
    Removing fs_lib.o(i.fn_cmp), (30 bytes).
    Removing fs_lib.o(i.fs_dir), (36 bytes).
    Removing fs_lib.o(i.fs_efs_lock), (64 bytes).
    Removing fs_lib.o(i.fs_fat_lock), (64 bytes).
    Removing fs_lib.o(i.fs_no_path), (26 bytes).
    Removing at_arp.o(i.arp_cache_ip), (52 bytes).
    Removing at_arp.o(i.arp_cache_mac), (136 bytes).
    Removing at_arp.o(i.arp_get_hwadr), (60 bytes).
    Removing at_arp.o(i.arp_get_info), (104 bytes).
    Removing fs_time.o(.ARM.RL_ARM1), (82 bytes).
    Removing fs_time.o(.ARM.RL_ARM2), (76 bytes).
    Removing fs_time.o(.ARM.RL_ARM3), (45 bytes).
    Removing fs_time.o(.ARM.RL_ARM4), (65 bytes).
    Removing fs_time.o(.ARM.RL_ARM5), (82 bytes).
    Removing fs_time.o(.ARM.RL_ARM6), (77 bytes).

138 unused section(s) (total 11832 bytes) removed from the image.

==============================================================================

Image Symbol Table

    Local Symbols

    Symbol Name                              Value     Ov Type        Size  Object(Section)

    RESET                                    0x00000000   Section      204  startup_lpc17xx.o(RESET)
    ../clib/angel/boardlib.s                 0x00000000   Number         0  boardinit1.o ABSOLUTE
    ../clib/angel/boardlib.s                 0x00000000   Number         0  boardinit2.o ABSOLUTE
    ../clib/angel/boardlib.s                 0x00000000   Number         0  boardinit3.o ABSOLUTE
    ../clib/angel/boardlib.s                 0x00000000   Number         0  boardshut.o ABSOLUTE
    ../clib/angel/handlers.s                 0x00000000   Number         0  __scatter_zi.o ABSOLUTE
    ../clib/angel/handlers.s                 0x00000000   Number         0  __scatter_copy.o ABSOLUTE
    ../clib/angel/kernel.s                   0x00000000   Number         0  __rtentry.o ABSOLUTE
    ../clib/angel/kernel.s                   0x00000000   Number         0  rtexit.o ABSOLUTE
    ../clib/angel/kernel.s                   0x00000000   Number         0  __rtentry4.o ABSOLUTE
    ../clib/angel/kernel.s                   0x00000000   Number         0  __rtentry2.o ABSOLUTE
    ../clib/angel/kernel.s                   0x00000000   Number         0  rtexit2.o ABSOLUTE
    ../clib/angel/rt.s                       0x00000000   Number         0  rt_errno_addr.o ABSOLUTE
    ../clib/angel/rt.s                       0x00000000   Number         0  aeabi_ldiv0_sigfpe.o ABSOLUTE
    ../clib/angel/rt.s                       0x00000000   Number         0  rt_locale.o ABSOLUTE
    ../clib/angel/rt.s                       0x00000000   Number         0  rt_heap_descriptor_intlibspace.o ABSOLUTE
    ../clib/angel/rt.s                       0x00000000   Number         0  rt_locale_intlibspace.o ABSOLUTE
    ../clib/angel/rt.s                       0x00000000   Number         0  rt_errno_addr_intlibspace.o ABSOLUTE
    ../clib/angel/rt.s                       0x00000000   Number         0  rt_raise.o ABSOLUTE
    ../clib/angel/rt.s                       0x00000000   Number         0  rt_ctype_table.o ABSOLUTE
    ../clib/angel/rt.s                       0x00000000   Number         0  rt_div0.o ABSOLUTE
    ../clib/angel/rt.s                       0x00000000   Number         0  rt_heap_descriptor.o ABSOLUTE
    ../clib/angel/rt.s                       0x00000000   Number         0  aeabi_ldiv0.o ABSOLUTE
    ../clib/angel/scatter.s                  0x00000000   Number         0  __scatter.o ABSOLUTE
    ../clib/angel/startup.s                  0x00000000   Number         0  __main.o ABSOLUTE
    ../clib/angel/sys.s                      0x00000000   Number         0  sys_stackheap_outer.o ABSOLUTE
    ../clib/angel/sys.s                      0x00000000   Number         0  use_no_semi.o ABSOLUTE
    ../clib/angel/sys.s                      0x00000000   Number         0  libspace.o ABSOLUTE
    ../clib/angel/sys.s                      0x00000000   Number         0  mutex_dummy.o ABSOLUTE
    ../clib/armsys.c                         0x00000000   Number         0  argv_veneer.o ABSOLUTE
    ../clib/armsys.c                         0x00000000   Number         0  argv_veneer.o ABSOLUTE
    ../clib/armsys.c                         0x00000000   Number         0  _get_argv.o ABSOLUTE
    ../clib/armsys.c                         0x00000000   Number         0  _get_argv_nomalloc.o ABSOLUTE
    ../clib/armsys.c                         0x00000000   Number         0  no_argv.o ABSOLUTE
    ../clib/ctype.c                          0x00000000   Number         0  isspace.o ABSOLUTE
    ../clib/ctype.c                          0x00000000   Number         0  tolower.o ABSOLUTE
    ../clib/heap1.c                          0x00000000   Number         0  h1_final.o ABSOLUTE
    ../clib/heap1.c                          0x00000000   Number         0  h1_alloc.o ABSOLUTE
    ../clib/heap1.c                          0x00000000   Number         0  h1_final_mt.o ABSOLUTE
    ../clib/heap1.c                          0x00000000   Number         0  h1_init_mt.o ABSOLUTE
    ../clib/heap1.c                          0x00000000   Number         0  h1_extend_mt.o ABSOLUTE
    ../clib/heap1.c                          0x00000000   Number         0  h1_extend.o ABSOLUTE
    ../clib/heap1.c                          0x00000000   Number         0  h1_alloc_mt.o ABSOLUTE
    ../clib/heap1.c                          0x00000000   Number         0  h1_free_mt.o ABSOLUTE
    ../clib/heap1.c                          0x00000000   Number         0  h1_free.o ABSOLUTE
    ../clib/heap1.c                          0x00000000   Number         0  h1_init.o ABSOLUTE
    ../clib/heap2.c                          0x00000000   Number         0  heap2.o ABSOLUTE
    ../clib/heap2.c                          0x00000000   Number         0  heap2mt.o ABSOLUTE
    ../clib/heap2.c                          0x00000000   Number         0  fdtree.o ABSOLUTE
    ../clib/heapalloc.c                      0x00000000   Number         0  maybetermalloc1.o ABSOLUTE
    ../clib/heapalloc.c                      0x00000000   Number         0  maybetermalloc1.o ABSOLUTE
    ../clib/heapalloc.c                      0x00000000   Number         0  term_alloc.o ABSOLUTE
    ../clib/heapalloc.c                      0x00000000   Number         0  maybetermalloc2.o ABSOLUTE
    ../clib/heapalloc.c                      0x00000000   Number         0  maybetermalloc2.o ABSOLUTE
    ../clib/heapalloc.c                      0x00000000   Number         0  heapstubs.o ABSOLUTE
    ../clib/heapalloc.c                      0x00000000   Number         0  init_alloc.o ABSOLUTE
    ../clib/heapalloc.c                      0x00000000   Number         0  free.o ABSOLUTE
    ../clib/heapalloc.c                      0x00000000   Number         0  malloc.o ABSOLUTE
    ../clib/heapalloc.c                      0x00000000   Number         0  hrguard.o ABSOLUTE
    ../clib/heapalloc.c                      0x00000000   Number         0  hguard.o ABSOLUTE
    ../clib/heapaux.c                        0x00000000   Number         0  heapauxi.o ABSOLUTE
    ../clib/heapaux.c                        0x00000000   Number         0  heapauxa.o ABSOLUTE
    ../clib/libinit.s                        0x00000000   Number         0  libshutdown2.o ABSOLUTE
    ../clib/libinit.s                        0x00000000   Number         0  libinit2.o ABSOLUTE
    ../clib/libinit.s                        0x00000000   Number         0  libinit.o ABSOLUTE
    ../clib/libinit.s                        0x00000000   Number         0  libshutdown.o ABSOLUTE
    ../clib/locale.s                         0x00000000   Number         0  lc_ctype_c.o ABSOLUTE
    ../clib/longlong.s                       0x00000000   Number         0  lludivv7m.o ABSOLUTE
    ../clib/memcpset.s                       0x00000000   Number         0  strcmpv7m.o ABSOLUTE
    ../clib/memcpset.s                       0x00000000   Number         0  rt_memclr_w.o ABSOLUTE
    ../clib/memcpset.s                       0x00000000   Number         0  rt_memclr.o ABSOLUTE
    ../clib/memcpset.s                       0x00000000   Number         0  aeabi_memset.o ABSOLUTE
    ../clib/memcpset.s                       0x00000000   Number         0  rt_memcpy_w.o ABSOLUTE
    ../clib/memcpset.s                       0x00000000   Number         0  rt_memcpy_v6.o ABSOLUTE
    ../clib/misc.s                           0x00000000   Number         0  printf_stubs.o ABSOLUTE
    ../clib/printf.c                         0x00000000   Number         0  _printf_hex_int_ll_ptr.o ABSOLUTE
    ../clib/printf.c                         0x00000000   Number         0  _printf_pad.o ABSOLUTE
    ../clib/printf.c                         0x00000000   Number         0  __printf.o ABSOLUTE
    ../clib/printf.c                         0x00000000   Number         0  noretval__2sprintf.o ABSOLUTE
    ../clib/printf.c                         0x00000000   Number         0  __2sprintf.o ABSOLUTE
    ../clib/printf.c                         0x00000000   Number         0  _printf_hex_ll_ptr.o ABSOLUTE
    ../clib/printf.c                         0x00000000   Number         0  _printf_hex_int_ptr.o ABSOLUTE
    ../clib/printf.c                         0x00000000   Number         0  _printf_hex_ptr.o ABSOLUTE
    ../clib/printf.c                         0x00000000   Number         0  _printf_hex_int_ll.o ABSOLUTE
    ../clib/printf.c                         0x00000000   Number         0  _printf_hex_int.o ABSOLUTE
    ../clib/printf.c                         0x00000000   Number         0  _printf_hex_ll.o ABSOLUTE
    ../clib/printf.c                         0x00000000   Number         0  _printf_charcount.o ABSOLUTE
    ../clib/printf.c                         0x00000000   Number         0  __printf_nopercent.o ABSOLUTE
    ../clib/printf.c                         0x00000000   Number         0  _printf_dec.o ABSOLUTE
    ../clib/printf.c                         0x00000000   Number         0  _printf_char.o ABSOLUTE
    ../clib/printf.c                         0x00000000   Number         0  _sputc.o ABSOLUTE
    ../clib/printf.c                         0x00000000   Number         0  _printf_char_common.o ABSOLUTE
    ../clib/printf.c                         0x00000000   Number         0  _printf_intcommon.o ABSOLUTE
    ../clib/printf.c                         0x00000000   Number         0  _printf_str.o ABSOLUTE
    ../clib/printf.c                         0x00000000   Number         0  __printf_flags_ss_wp.o ABSOLUTE
    ../clib/printf.c                         0x00000000   Number         0  __printf_ss_wp.o ABSOLUTE
    ../clib/printf.c                         0x00000000   Number         0  __printf_flags_wp.o ABSOLUTE
    ../clib/printf.c                         0x00000000   Number         0  __printf_wp.o ABSOLUTE
    ../clib/printf.c                         0x00000000   Number         0  __printf_flags_ss.o ABSOLUTE
    ../clib/printf.c                         0x00000000   Number         0  __printf_ss.o ABSOLUTE
    ../clib/printf.c                         0x00000000   Number         0  __printf_flags.o ABSOLUTE
    ../clib/printf_percent.s                 0x00000000   Number         0  _printf_d.o ABSOLUTE
    ../clib/printf_percent.s                 0x00000000   Number         0  _printf_percent.o ABSOLUTE
    ../clib/printf_percent.s                 0x00000000   Number         0  _printf_c.o ABSOLUTE
    ../clib/printf_percent.s                 0x00000000   Number         0  _printf_p.o ABSOLUTE
    ../clib/printf_percent.s                 0x00000000   Number         0  _printf_percent_end.o ABSOLUTE
    ../clib/printf_percent.s                 0x00000000   Number         0  _printf_s.o ABSOLUTE
    ../clib/printf_percent.s                 0x00000000   Number         0  _printf_n.o ABSOLUTE
    ../clib/scanf.c                          0x00000000   Number         0  strtol.o ABSOLUTE
    ../clib/scanf.c                          0x00000000   Number         0  atoi.o ABSOLUTE
    ../clib/scanf.c                          0x00000000   Number         0  _strtoul.o ABSOLUTE
    ../clib/scanf.c                          0x00000000   Number         0  _scanf.o ABSOLUTE
    ../clib/scanf.c                          0x00000000   Number         0  _sgetc.o ABSOLUTE
    ../clib/scanf.c                          0x00000000   Number         0  __0sscanf.o ABSOLUTE
    ../clib/scanf.c                          0x00000000   Number         0  _scanf_int.o ABSOLUTE
    ../clib/scanf.c                          0x00000000   Number         0  scanf_char.o ABSOLUTE
    ../clib/scanf.c                          0x00000000   Number         0  _chval.o ABSOLUTE
    ../clib/signal.c                         0x00000000   Number         0  defsig_pvfn_inner.o ABSOLUTE
    ../clib/signal.c                         0x00000000   Number         0  defsig_cppl_inner.o ABSOLUTE
    ../clib/signal.c                         0x00000000   Number         0  defsig_segv_inner.o ABSOLUTE
    ../clib/signal.c                         0x00000000   Number         0  defsig_other.o ABSOLUTE
    ../clib/signal.c                         0x00000000   Number         0  defsig_fpe_inner.o ABSOLUTE
    ../clib/signal.c                         0x00000000   Number         0  defsig_fpe_outer.o ABSOLUTE
    ../clib/signal.c                         0x00000000   Number         0  defsig_fpe_formal.o ABSOLUTE
    ../clib/signal.c                         0x00000000   Number         0  defsig_rtred_outer.o ABSOLUTE
    ../clib/signal.c                         0x00000000   Number         0  defsig_rtred_formal.o ABSOLUTE
    ../clib/signal.c                         0x00000000   Number         0  defsig_rtmem_outer.o ABSOLUTE
    ../clib/signal.c                         0x00000000   Number         0  defsig_rtmem_formal.o ABSOLUTE
    ../clib/signal.c                         0x00000000   Number         0  defsig_exit.o ABSOLUTE
    ../clib/signal.c                         0x00000000   Number         0  defsig_rtred_inner.o ABSOLUTE
    ../clib/signal.c                         0x00000000   Number         0  defsig_rtmem_inner.o ABSOLUTE
    ../clib/signal.c                         0x00000000   Number         0  __raise.o ABSOLUTE
    ../clib/signal.c                         0x00000000   Number         0  defsig_general.o ABSOLUTE
    ../clib/signal.c                         0x00000000   Number         0  defsig_abrt_inner.o ABSOLUTE
    ../clib/signal.c                         0x00000000   Number         0  defsig_stak_inner.o ABSOLUTE
    ../clib/signal.s                         0x00000000   Number         0  defsig.o ABSOLUTE
    ../clib/stdio.c                          0x00000000   Number         0  fopen.o ABSOLUTE
    ../clib/stdio.c                          0x00000000   Number         0  streamlock.o ABSOLUTE
    ../clib/stdio.c                          0x00000000   Number         0  setvbuf_locked.o ABSOLUTE
    ../clib/stdio.c                          0x00000000   Number         0  ftell.o ABSOLUTE
    ../clib/stdio.c                          0x00000000   Number         0  fopen_locked.o ABSOLUTE
    ../clib/stdio.c                          0x00000000   Number         0  initio_locked.o ABSOLUTE
    ../clib/stdio.c                          0x00000000   Number         0  fseek.o ABSOLUTE
    ../clib/stdio.c                          0x00000000   Number         0  stdio.o ABSOLUTE
    ../clib/stdio.c                          0x00000000   Number         0  initio.o ABSOLUTE
    ../clib/stdio.c                          0x00000000   Number         0  setvbuf.o ABSOLUTE
    ../clib/stdio.c                          0x00000000   Number         0  fclose_locked.o ABSOLUTE
    ../clib/stdio.c                          0x00000000   Number         0  stdio_streams.o ABSOLUTE
    ../clib/stdio.c                          0x00000000   Number         0  fclose.o ABSOLUTE
    ../clib/stdlib.c                         0x00000000   Number         0  exit.o ABSOLUTE
    ../clib/string.c                         0x00000000   Number         0  strncasecmp.o ABSOLUTE
    ../clib/string.c                         0x00000000   Number         0  strlen.o ABSOLUTE
    ../fplib/fpinit.s                        0x00000000   Number         0  fpinit.o ABSOLUTE
    RL_ARM.s                                 0x00000000   Number         0  fs_time.o ABSOLUTE
    RL_ARM.s                                 0x00000000   Number         0  at_lib.o ABSOLUTE
    RL_ARM.s                                 0x00000000   Number         0  at_http_uif.o ABSOLUTE
    RL_ARM.s                                 0x00000000   Number         0  at_icmp.o ABSOLUTE
    RL_ARM.s                                 0x00000000   Number         0  http_err.o ABSOLUTE
    RL_ARM.s                                 0x00000000   Number         0  fs_mapi.o ABSOLUTE
    RL_ARM.s                                 0x00000000   Number         0  fs_fat.o ABSOLUTE
    RL_ARM.s                                 0x00000000   Number         0  at_system.o ABSOLUTE
    RL_ARM.s                                 0x00000000   Number         0  at_nbns.o ABSOLUTE
    RL_ARM.s                                 0x00000000   Number         0  at_dhcp.o ABSOLUTE
    RL_ARM.s                                 0x00000000   Number         0  fs_lib.o ABSOLUTE
    RL_ARM.s                                 0x00000000   Number         0  at_ethernet.o ABSOLUTE
    RL_ARM.s                                 0x00000000   Number         0  at_http.o ABSOLUTE
    RL_ARM.s                                 0x00000000   Number         0  at_arp.o ABSOLUTE
    RL_ARM.s                                 0x00000000   Number         0  at_udp.o ABSOLUTE
    RL_ARM.s                                 0x00000000   Number         0  fs_mmc.o ABSOLUTE
    RL_ARM.s                                 0x00000000   Number         0  at_ip.o ABSOLUTE
    RL_ARM.s                                 0x00000000   Number         0  at_tcp.o ABSOLUTE
    RL_ARM.s                                 0x00000000   Number         0  at_mem.o ABSOLUTE
    RL_ARM.s                                 0x00000000   Number         0  fs_sys.o ABSOLUTE
    SRC\HTTP_err.c                           0x00000000   Number         0  http_err.o ABSOLUTE
    SRC\\at_System.c                         0x00000000   Number         0  at_system.o ABSOLUTE
    SRC\\fs_sys.c                            0x00000000   Number         0  fs_sys.o ABSOLUTE
    SRC\at_ARP.c                             0x00000000   Number         0  at_arp.o ABSOLUTE
    SRC\at_DHCP.c                            0x00000000   Number         0  at_dhcp.o ABSOLUTE
    SRC\at_Ethernet.c                        0x00000000   Number         0  at_ethernet.o ABSOLUTE
    SRC\at_HTTP.c                            0x00000000   Number         0  at_http.o ABSOLUTE
    SRC\at_HTTP_uif.c                        0x00000000   Number         0  at_http_uif.o ABSOLUTE
    SRC\at_ICMP.c                            0x00000000   Number         0  at_icmp.o ABSOLUTE
    SRC\at_IP.c                              0x00000000   Number         0  at_ip.o ABSOLUTE
    SRC\at_Lib.c                             0x00000000   Number         0  at_lib.o ABSOLUTE
    SRC\at_Mem.c                             0x00000000   Number         0  at_mem.o ABSOLUTE
    SRC\at_NBNS.c                            0x00000000   Number         0  at_nbns.o ABSOLUTE
    SRC\at_System.c                          0x00000000   Number         0  at_system.o ABSOLUTE
    SRC\at_TCP.c                             0x00000000   Number         0  at_tcp.o ABSOLUTE
    SRC\at_UDP.c                             0x00000000   Number         0  at_udp.o ABSOLUTE
    SRC\fs_fat.c                             0x00000000   Number         0  fs_fat.o ABSOLUTE
    SRC\fs_lib.c                             0x00000000   Number         0  fs_lib.o ABSOLUTE
    SRC\fs_mapi.c                            0x00000000   Number         0  fs_mapi.o ABSOLUTE
    SRC\fs_mmc.c                             0x00000000   Number         0  fs_mmc.o ABSOLUTE
    SRC\fs_sys.c                             0x00000000   Number         0  fs_sys.o ABSOLUTE
    SRC\fs_time.c                            0x00000000   Number         0  fs_time.o ABSOLUTE
    Source\Flash\File_Config.c               0x00000000   Number         0  file_config.o ABSOLUTE
    Source\Flash\Retarget.c                  0x00000000   Number         0  retarget.o ABSOLUTE
    Source\Flash\SPI_LPC17xx.c               0x00000000   Number         0  spi_lpc17xx.o ABSOLUTE
    Source\Flash\Serial.c                    0x00000000   Number         0  serial.o ABSOLUTE
    Source\LPC17xx\system_LPC17xx.c          0x00000000   Number         0  system_lpc17xx.o ABSOLUTE
    Source\Web\Web.c                         0x00000000   Number         0  web.o ABSOLUTE
    Source\\Flash\\SPI_LPC17xx.c             0x00000000   Number         0  spi_lpc17xx.o ABSOLUTE
    Source\\Flash\\Serial.c                  0x00000000   Number         0  serial.o ABSOLUTE
    Source\\LPC17xx\\system_LPC17xx.c        0x00000000   Number         0  system_lpc17xx.o ABSOLUTE
    Source\\library_Http\\EMAC_LPC17xx.c     0x00000000   Number         0  emac_lpc17xx.o ABSOLUTE
    Source\\main.c                           0x00000000   Number         0  main.o ABSOLUTE
    Source\library_Http\EMAC_LPC17xx.c       0x00000000   Number         0  emac_lpc17xx.o ABSOLUTE
    Source\library_Http\HTTP_CGI.c           0x00000000   Number         0  http_cgi.o ABSOLUTE
    Source\library_Http\Net_Config.c         0x00000000   Number         0  net_config.o ABSOLUTE
    Source\main.c                            0x00000000   Number         0  main.o ABSOLUTE
    dc.s                                     0x00000000   Number         0  dc.o ABSOLUTE
    startup_LPC17xx.s                        0x00000000   Number         0  startup_lpc17xx.o ABSOLUTE
    !!!main                                  0x000000cc   Section        8  __main.o(!!!main)
    !!!scatter                               0x000000d4   Section       52  __scatter.o(!!!scatter)
    !!handler_copy                           0x00000108   Section       26  __scatter_copy.o(!!handler_copy)
    !!handler_zi                             0x00000124   Section       28  __scatter_zi.o(!!handler_zi)
    .ARM.Collect$$_printf_percent$$00000000  0x00000140   Section        0  _printf_percent.o(.ARM.Collect$$_printf_percent$$00000000)
    .ARM.Collect$$_printf_percent$$00000001  0x00000140   Section        6  _printf_n.o(.ARM.Collect$$_printf_percent$$00000001)
    .ARM.Collect$$_printf_percent$$00000002  0x00000146   Section        6  _printf_p.o(.ARM.Collect$$_printf_percent$$00000002)
    .ARM.Collect$$_printf_percent$$00000009  0x0000014c   Section        6  _printf_d.o(.ARM.Collect$$_printf_percent$$00000009)
    .ARM.Collect$$_printf_percent$$00000013  0x00000152   Section        6  _printf_c.o(.ARM.Collect$$_printf_percent$$00000013)
    .ARM.Collect$$_printf_percent$$00000014  0x00000158   Section        6  _printf_s.o(.ARM.Collect$$_printf_percent$$00000014)
    .ARM.Collect$$_printf_percent$$00000017  0x0000015e   Section        4  _printf_percent_end.o(.ARM.Collect$$_printf_percent$$00000017)
    .ARM.Collect$$libinit$$00000000          0x00000162   Section        2  libinit.o(.ARM.Collect$$libinit$$00000000)
    .ARM.Collect$$libinit$$00000002          0x00000164   Section        0  libinit2.o(.ARM.Collect$$libinit$$00000002)
    .ARM.Collect$$libinit$$00000004          0x00000164   Section        0  libinit2.o(.ARM.Collect$$libinit$$00000004)
    .ARM.Collect$$libinit$$0000000A          0x00000164   Section        0  libinit2.o(.ARM.Collect$$libinit$$0000000A)
    .ARM.Collect$$libinit$$0000000C          0x00000164   Section        0  libinit2.o(.ARM.Collect$$libinit$$0000000C)
    .ARM.Collect$$libinit$$0000000E          0x00000164   Section        0  libinit2.o(.ARM.Collect$$libinit$$0000000E)
    .ARM.Collect$$libinit$$0000000F          0x00000164   Section        6  libinit2.o(.ARM.Collect$$libinit$$0000000F)
    .ARM.Collect$$libinit$$00000011          0x0000016a   Section        0  libinit2.o(.ARM.Collect$$libinit$$00000011)
    .ARM.Collect$$libinit$$00000012          0x0000016a   Section       12  libinit2.o(.ARM.Collect$$libinit$$00000012)
    .ARM.Collect$$libinit$$00000013          0x00000176   Section        0  libinit2.o(.ARM.Collect$$libinit$$00000013)
    .ARM.Collect$$libinit$$00000015          0x00000176   Section        0  libinit2.o(.ARM.Collect$$libinit$$00000015)
    .ARM.Collect$$libinit$$00000017          0x00000176   Section        0  libinit2.o(.ARM.Collect$$libinit$$00000017)
    .ARM.Collect$$libinit$$00000019          0x00000176   Section        0  libinit2.o(.ARM.Collect$$libinit$$00000019)
    .ARM.Collect$$libinit$$0000001B          0x00000176   Section        0  libinit2.o(.ARM.Collect$$libinit$$0000001B)
    .ARM.Collect$$libinit$$0000001D          0x00000176   Section        0  libinit2.o(.ARM.Collect$$libinit$$0000001D)
    .ARM.Collect$$libinit$$0000001F          0x00000176   Section        0  libinit2.o(.ARM.Collect$$libinit$$0000001F)
    .ARM.Collect$$libinit$$00000021          0x00000176   Section        0  libinit2.o(.ARM.Collect$$libinit$$00000021)
    .ARM.Collect$$libinit$$00000023          0x00000176   Section        0  libinit2.o(.ARM.Collect$$libinit$$00000023)
    .ARM.Collect$$libinit$$00000025          0x00000176   Section        0  libinit2.o(.ARM.Collect$$libinit$$00000025)
    .ARM.Collect$$libinit$$0000002C          0x00000176   Section        0  libinit2.o(.ARM.Collect$$libinit$$0000002C)
    .ARM.Collect$$libinit$$0000002E          0x00000176   Section        0  libinit2.o(.ARM.Collect$$libinit$$0000002E)
    .ARM.Collect$$libinit$$00000030          0x00000176   Section        0  libinit2.o(.ARM.Collect$$libinit$$00000030)
    .ARM.Collect$$libinit$$00000032          0x00000176   Section        0  libinit2.o(.ARM.Collect$$libinit$$00000032)
    .ARM.Collect$$libinit$$00000033          0x00000176   Section        2  libinit2.o(.ARM.Collect$$libinit$$00000033)
    .ARM.Collect$$libshutdown$$00000000      0x00000178   Section        2  libshutdown.o(.ARM.Collect$$libshutdown$$00000000)
    .ARM.Collect$$libshutdown$$00000002      0x0000017a   Section        0  libshutdown2.o(.ARM.Collect$$libshutdown$$00000002)
    .ARM.Collect$$libshutdown$$00000004      0x0000017a   Section        0  libshutdown2.o(.ARM.Collect$$libshutdown$$00000004)
    .ARM.Collect$$libshutdown$$00000007      0x0000017a   Section        0  libshutdown2.o(.ARM.Collect$$libshutdown$$00000007)
    .ARM.Collect$$libshutdown$$0000000A      0x0000017a   Section        0  libshutdown2.o(.ARM.Collect$$libshutdown$$0000000A)
    .ARM.Collect$$libshutdown$$0000000C      0x0000017a   Section        0  libshutdown2.o(.ARM.Collect$$libshutdown$$0000000C)
    .ARM.Collect$$libshutdown$$0000000F      0x0000017a   Section        0  libshutdown2.o(.ARM.Collect$$libshutdown$$0000000F)
    .ARM.Collect$$libshutdown$$00000010      0x0000017a   Section        2  libshutdown2.o(.ARM.Collect$$libshutdown$$00000010)
    .ARM.Collect$$rtentry$$00000000          0x0000017c   Section        0  __rtentry.o(.ARM.Collect$$rtentry$$00000000)
    .ARM.Collect$$rtentry$$00000002          0x0000017c   Section        0  __rtentry2.o(.ARM.Collect$$rtentry$$00000002)
    .ARM.Collect$$rtentry$$00000004          0x0000017c   Section        6  __rtentry4.o(.ARM.Collect$$rtentry$$00000004)
    .ARM.Collect$$rtentry$$00000009          0x00000182   Section        0  __rtentry2.o(.ARM.Collect$$rtentry$$00000009)
    .ARM.Collect$$rtentry$$0000000A          0x00000182   Section        4  __rtentry2.o(.ARM.Collect$$rtentry$$0000000A)
    .ARM.Collect$$rtentry$$0000000C          0x00000186   Section        0  __rtentry2.o(.ARM.Collect$$rtentry$$0000000C)
    .ARM.Collect$$rtentry$$0000000D          0x00000186   Section        8  __rtentry2.o(.ARM.Collect$$rtentry$$0000000D)
    .ARM.Collect$$rtexit$$00000000           0x0000018e   Section        2  rtexit.o(.ARM.Collect$$rtexit$$00000000)
    .ARM.Collect$$rtexit$$00000002           0x00000190   Section        0  rtexit2.o(.ARM.Collect$$rtexit$$00000002)
    .ARM.Collect$$rtexit$$00000003           0x00000190   Section        4  rtexit2.o(.ARM.Collect$$rtexit$$00000003)
    .ARM.Collect$$rtexit$$00000004           0x00000194   Section        6  rtexit2.o(.ARM.Collect$$rtexit$$00000004)
    .text                                    0x0000019c   Section       64  startup_lpc17xx.o(.text)
    .text                                    0x000001dc   Section        2  use_no_semi.o(.text)
    .text                                    0x000001e0   Section        0  __2sprintf.o(.text)
    .text                                    0x0000020c   Section        0  _printf_pad.o(.text)
    .text                                    0x0000025a   Section        0  _printf_str.o(.text)
    .text                                    0x000002ac   Section        0  _printf_charcount.o(.text)
    .text                                    0x000002d4   Section        0  atoi.o(.text)
    .text                                    0x000002ee   Section        0  heapauxi.o(.text)
    .text                                    0x000002f4   Section        8  rt_errno_addr_intlibspace.o(.text)
    .ARM.__at_0x02FC                         0x000002fc   Section        4  startup_lpc17xx.o(.ARM.__at_0x02FC)
    .text                                    0x00000300   Section        0  _printf_dec.o(.text)
    .text                                    0x00000378   Section        0  _printf_hex_ptr.o(.text)
    .text                                    0x000003cc   Section        0  __printf_flags_ss_wp.o(.text)
    .text                                    0x00000554   Section        0  __0sscanf.o(.text)
    .text                                    0x00000590   Section        0  _scanf_int.o(.text)
    .text                                    0x000006dc   Section        0  fclose.o(.text)
    .text                                    0x00000728   Section        0  strncasecmp.o(.text)
    .text                                    0x0000075a   Section        0  strlen.o(.text)
    .text                                    0x00000798   Section      138  rt_memcpy_v6.o(.text)
    .text                                    0x00000822   Section      100  rt_memcpy_w.o(.text)
    .text                                    0x00000886   Section       68  rt_memclr.o(.text)
    .text                                    0x000008ca   Section       78  rt_memclr_w.o(.text)
    .text                                    0x00000918   Section      128  strcmpv7m.o(.text)
    .text                                    0x00000998   Section        0  h1_free.o(.text)
    .text                                    0x000009e6   Section        0  tolower.o(.text)
    .text                                    0x00000a00   Section        0  _printf_intcommon.o(.text)
    .text                                    0x00000ab4   Section        0  _printf_char_common.o(.text)
    _printf_input_char                       0x00000ab5   Thumb Code    10  _printf_char_common.o(.text)
    .text                                    0x00000ae4   Section        0  _sputc.o(.text)
    .text                                    0x00000aee   Section        0  _printf_char.o(.text)
    .text                                    0x00000b1a   Section        0  _chval.o(.text)
    .text                                    0x00000b38   Section        0  scanf_char.o(.text)
    _scanf_char_input                        0x00000b39   Thumb Code    12  scanf_char.o(.text)
    .text                                    0x00000b64   Section        0  _sgetc.o(.text)
    .text                                    0x00000ba4   Section        0  strtol.o(.text)
    .text                                    0x00000c14   Section        0  stdio.o(.text)
    .text                                    0x00000d04   Section        8  libspace.o(.text)
    .text                                    0x00000d0c   Section       16  rt_ctype_table.o(.text)
    .text                                    0x00000d1c   Section        8  rt_heap_descriptor_intlibspace.o(.text)
    .text                                    0x00000d24   Section        0  isspace.o(.text)
    .text                                    0x00000d38   Section        0  _scanf.o(.text)
    .text                                    0x000010ac   Section        0  _strtoul.o(.text)
    .text                                    0x0000114a   Section       74  sys_stackheap_outer.o(.text)
    .text                                    0x00001194   Section        8  rt_locale_intlibspace.o(.text)
    .text                                    0x0000119c   Section        0  exit.o(.text)
    i.BusSpeed                               0x000011b0   Section        0  spi_lpc17xx.o(i.BusSpeed)
    BusSpeed                                 0x000011b1   Thumb Code    38  spi_lpc17xx.o(i.BusSpeed)
    i.CheckMedia                             0x000011e0   Section        0  spi_lpc17xx.o(i.CheckMedia)
    CheckMedia                               0x000011e1   Thumb Code    18  spi_lpc17xx.o(i.CheckMedia)
    i.ENET_IRQHandler                        0x000011f8   Section        0  emac_lpc17xx.o(i.ENET_IRQHandler)
    i.Init                                   0x000012b0   Section        0  spi_lpc17xx.o(i.Init)
    Init                                     0x000012b1   Thumb Code   164  spi_lpc17xx.o(i.Init)
    i.LED_out                                0x00001364   Section        0  main.o(i.LED_out)
    i.RecBuf                                 0x000013a0   Section        0  spi_lpc17xx.o(i.RecBuf)
    RecBuf                                   0x000013a1   Thumb Code    46  spi_lpc17xx.o(i.RecBuf)
    i.SER_Init                               0x000013d4   Section        0  serial.o(i.SER_Init)
    i.SER_PutChar                            0x00001420   Section        0  serial.o(i.SER_PutChar)
    i.Send                                   0x00001438   Section        0  spi_lpc17xx.o(i.Send)
    Send                                     0x00001439   Thumb Code    28  spi_lpc17xx.o(i.Send)
    i.SendBuf                                0x00001458   Section        0  spi_lpc17xx.o(i.SendBuf)
    SendBuf                                  0x00001459   Thumb Code    62  spi_lpc17xx.o(i.SendBuf)
    i.SetSS                                  0x0000149c   Section        0  spi_lpc17xx.o(i.SetSS)
    SetSS                                    0x0000149d   Thumb Code    26  spi_lpc17xx.o(i.SetSS)
    i.SystemInit                             0x000014bc   Section        0  system_lpc17xx.o(i.SystemInit)
    i.UnInit                                 0x000015fc   Section        0  spi_lpc17xx.o(i.UnInit)
    UnInit                                   0x000015fd   Thumb Code    90  spi_lpc17xx.o(i.UnInit)
    i.__sys_close                            0x0000166c   Section        0  fs_sys.o(i.__sys_close)
    i.__sys_seek                             0x000016c0   Section        0  fs_sys.o(i.__sys_seek)
    i.__sys_write                            0x0000170c   Section        0  fs_sys.o(i.__sys_write)
    i._is_digit                              0x00001764   Section        0  __printf_wp.o(i._is_digit)
    i._sys_close                             0x00001772   Section        0  retarget.o(i._sys_close)
    i._sys_exit                              0x00001788   Section        0  retarget.o(i._sys_exit)
    i._sys_seek                              0x0000178c   Section        0  retarget.o(i._sys_seek)
    i._sys_write                             0x000017a8   Section        0  retarget.o(i._sys_write)
    i.add_server_id                          0x000017ec   Section        0  at_http.o(i.add_server_id)
    add_server_id                            0x000017ed   Thumb Code    16  at_http.o(i.add_server_id)
    i.alloc_mem                              0x00001820   Section        0  at_mem.o(i.alloc_mem)
    i.arp_cache_add                          0x000018d8   Section        0  at_arp.o(i.arp_cache_add)
    i.arp_cache_alloc                        0x00001990   Section        0  at_arp.o(i.arp_cache_alloc)
    arp_cache_alloc                          0x00001991   Thumb Code   132  at_arp.o(i.arp_cache_alloc)
    i.arp_cache_early                        0x00001a18   Section        0  at_arp.o(i.arp_cache_early)
    i.arp_cache_find                         0x00001ab0   Section        0  at_arp.o(i.arp_cache_find)
    i.arp_cache_update                       0x00001b64   Section        0  at_arp.o(i.arp_cache_update)
    i.arp_init                               0x00001c58   Section        0  at_arp.o(i.arp_init)
    i.arp_is_cacheable                       0x00001c84   Section        0  at_arp.o(i.arp_is_cacheable)
    arp_is_cacheable                         0x00001c85   Thumb Code    48  at_arp.o(i.arp_is_cacheable)
    i.arp_notify                             0x00001cb8   Section        0  at_arp.o(i.arp_notify)
    i.arp_probe                              0x00001ce0   Section        0  at_arp.o(i.arp_probe)
    i.arp_proc_response                      0x00001cf4   Section        0  at_arp.o(i.arp_proc_response)
    arp_proc_response                        0x00001cf5   Thumb Code   130  at_arp.o(i.arp_proc_response)
    i.arp_process                            0x00001d7c   Section        0  at_arp.o(i.arp_process)
    i.arp_send_reply                         0x00001eb4   Section        0  at_arp.o(i.arp_send_reply)
    arp_send_reply                           0x00001eb5   Thumb Code   150  at_arp.o(i.arp_send_reply)
    i.arp_send_request                       0x00001f54   Section        0  at_arp.o(i.arp_send_request)
    arp_send_request                         0x00001f55   Thumb Code   170  at_arp.o(i.arp_send_request)
    i.avail_mem                              0x0000200c   Section        0  at_mem.o(i.avail_mem)
    i.b64_to_asc                             0x00002028   Section        0  at_lib.o(i.b64_to_asc)
    i.bs_read                                0x000020a0   Section        0  fs_fat.o(i.bs_read)
    bs_read                                  0x000020a1   Thumb Code   176  fs_fat.o(i.bs_read)
    i.cache_fat                              0x00002150   Section        0  fs_fat.o(i.cache_fat)
    cache_fat                                0x00002151   Thumb Code   146  fs_fat.o(i.cache_fat)
    i.calc_chksum16be                        0x000021e2   Section        0  at_lib.o(i.calc_chksum16be)
    i.cgi_func                               0x000021f4   Section        0  http_cgi.o(i.cgi_func)
    i.cgi_process_data                       0x000022d4   Section        0  http_cgi.o(i.cgi_process_data)
    i.cgi_process_var                        0x00002418   Section        0  http_cgi.o(i.cgi_process_var)
    i.cgx_content_type                       0x000025ac   Section        0  at_http.o(i.cgx_content_type)
    i.char_validate                          0x000025b0   Section        0  fs_fat.o(i.char_validate)
    char_validate                            0x000025b1   Thumb Code    96  fs_fat.o(i.char_validate)
    i.chk_post_req                           0x00002610   Section        0  at_http.o(i.chk_post_req)
    chk_post_req                             0x00002611   Thumb Code   348  at_http.o(i.chk_post_req)
    i.chksum16_buf                           0x000027dc   Section        0  at_lib.o(i.chksum16_buf)
    i.chksum16_val                           0x00002804   Section        0  at_lib.o(i.chksum16_val)
    i.clus_to_sect                           0x0000280e   Section        0  fs_fat.o(i.clus_to_sect)
    clus_to_sect                             0x0000280f   Thumb Code    36  fs_fat.o(i.clus_to_sect)
    i.cmp_fname_ext                          0x00002832   Section        0  at_http.o(i.cmp_fname_ext)
    cmp_fname_ext                            0x00002833   Thumb Code    30  at_http.o(i.cmp_fname_ext)
    i.cmp_header                             0x00002850   Section        0  at_http.o(i.cmp_header)
    cmp_header                               0x00002851   Thumb Code    40  at_http.o(i.cmp_header)
    i.count_free_clus                        0x00002878   Section        0  fs_fat.o(i.count_free_clus)
    count_free_clus                          0x00002879   Thumb Code   266  fs_fat.o(i.count_free_clus)
    i.dhcp_cbfunc                            0x00002982   Section        0  at_dhcp.o(i.dhcp_cbfunc)
    i.dhcp_check                             0x00002984   Section        0  main.o(i.dhcp_check)
    dhcp_check                               0x00002985   Thumb Code   190  main.o(i.dhcp_check)
    i.dhcp_disable                           0x00002a90   Section        0  at_dhcp.o(i.dhcp_disable)
    i.dhcp_init                              0x00002acc   Section        0  at_dhcp.o(i.dhcp_init)
    i.dhcp_listener                          0x00002b1c   Section        0  at_dhcp.o(i.dhcp_listener)
    dhcp_listener                            0x00002b1d   Thumb Code   492  at_dhcp.o(i.dhcp_listener)
    i.dhcp_run_client                        0x00002d18   Section        0  at_dhcp.o(i.dhcp_run_client)
    i.dhcp_send_message                      0x00002edc   Section        0  at_dhcp.o(i.dhcp_send_message)
    dhcp_send_message                        0x00002edd   Thumb Code   500  at_dhcp.o(i.dhcp_send_message)
    i.efs_ffind                              0x000030ec   Section        0  file_config.o(i.efs_ffind)
    i.efs_fsize                              0x000030f0   Section        0  file_config.o(i.efs_fsize)
    i.efs_seek                               0x000030f2   Section        0  file_config.o(i.efs_seek)
    i.efs_wclose                             0x000030f6   Section        0  file_config.o(i.efs_wclose)
    i.efs_write                              0x000030fa   Section        0  file_config.o(i.efs_write)
    i.elink_cmd                              0x000030fe   Section        0  file_config.o(i.elink_cmd)
    i.elink_flush                            0x00003102   Section        0  file_config.o(i.elink_flush)
    i.elink_init                             0x00003106   Section        0  file_config.o(i.elink_init)
    i.elink_init_path                        0x0000310a   Section        0  file_config.o(i.elink_init_path)
    i.elink_insert                           0x0000310e   Section        0  file_config.o(i.elink_insert)
    i.elink_scan                             0x00003112   Section        0  file_config.o(i.elink_scan)
    i.entry_flush                            0x00003116   Section        0  fs_fat.o(i.entry_flush)
    entry_flush                              0x00003117   Thumb Code    40  fs_fat.o(i.entry_flush)
    i.entry_pos_comp                         0x0000313e   Section        0  fs_fat.o(i.entry_pos_comp)
    entry_pos_comp                           0x0000313f   Thumb Code    50  fs_fat.o(i.entry_pos_comp)
    i.entry_pos_set                          0x00003170   Section        0  fs_fat.o(i.entry_pos_set)
    i.entry_read                             0x000031c8   Section        0  fs_fat.o(i.entry_read)
    i.entry_type                             0x000031fe   Section        0  fs_fat.o(i.entry_type)
    entry_type                               0x000031ff   Thumb Code    46  fs_fat.o(i.entry_type)
    i.eth_chk_adr                            0x0000322c   Section        0  at_ethernet.o(i.eth_chk_adr)
    i.eth_init_link                          0x0000323c   Section        0  at_ethernet.o(i.eth_init_link)
    i.eth_run_link                           0x00003270   Section        0  at_ethernet.o(i.eth_run_link)
    i.eth_send_frame                         0x00003344   Section        0  at_ethernet.o(i.eth_send_frame)
    i.fat_close                              0x000033ec   Section        0  fs_fat.o(i.fat_close)
    i.fat_crc32                              0x000034c4   Section        0  fs_fat.o(i.fat_crc32)
    fat_crc32                                0x000034c5   Thumb Code    42  fs_fat.o(i.fat_crc32)
    i.fat_ffind                              0x000034f4   Section        0  fs_fat.o(i.fat_ffind)
    i.fat_init                               0x000035e6   Section        0  fs_fat.o(i.fat_init)
    i.fat_jour_init                          0x00003738   Section        0  file_config.o(i.fat_jour_init)
    i.fat_seek                               0x0000373c   Section        0  fs_fat.o(i.fat_seek)
    i.fat_write                              0x000037f2   Section        0  fs_fat.o(i.fat_write)
    i.ffind                                  0x00003918   Section        0  fs_mapi.o(i.ffind)
    i.finit                                  0x00003ad8   Section        0  fs_mapi.o(i.finit)
    i.frec_find                              0x00003b54   Section        0  fs_fat.o(i.frec_find)
    frec_find                                0x00003b55   Thumb Code   550  fs_fat.o(i.frec_find)
    i.frec_find_elink                        0x00003d80   Section        0  fs_fat.o(i.frec_find_elink)
    frec_find_elink                          0x00003d81   Thumb Code    88  fs_fat.o(i.frec_find_elink)
    i.frec_next                              0x00003dd8   Section        0  fs_fat.o(i.frec_next)
    frec_next                                0x00003dd9   Thumb Code   268  fs_fat.o(i.frec_next)
    i.free_mem                               0x00003ee8   Section        0  at_mem.o(i.free_mem)
    i.fs_cfg_drv                             0x00003f6c   Section        0  fs_mapi.o(i.fs_cfg_drv)
    i.fs_chk_media                           0x00003fdc   Section        0  fs_lib.o(i.fs_chk_media)
    i.fs_config                              0x0000400c   Section        0  file_config.o(i.fs_config)
    i.fs_find_drv                            0x00004038   Section        0  fs_lib.o(i.fs_find_drv)
    i.fs_find_iob                            0x00004064   Section        0  fs_lib.o(i.fs_find_iob)
    i.fs_get_date                            0x0000409c   Section        0  fs_time.o(i.fs_get_date)
    i.fs_get_time                            0x000040a4   Section        0  fs_time.o(i.fs_get_time)
    i.fs_map_drive                           0x000040ac   Section        0  fs_lib.o(i.fs_map_drive)
    i.fs_strpos                              0x00004124   Section        0  fs_lib.o(i.fs_strpos)
    i.fsinfo_read                            0x0000413c   Section        0  fs_fat.o(i.fsinfo_read)
    fsinfo_read                              0x0000413d   Thumb Code   114  fs_fat.o(i.fsinfo_read)
    i.fsinfo_write                           0x000041bc   Section        0  fs_fat.o(i.fsinfo_write)
    fsinfo_write                             0x000041bd   Thumb Code    90  fs_fat.o(i.fsinfo_write)
    i.fsj_write                              0x00004220   Section        0  file_config.o(i.fsj_write)
    i.getSDData                              0x00004224   Section        0  main.o(i.getSDData)
    i.get_EOC                                0x000042c4   Section        0  fs_fat.o(i.get_EOC)
    get_EOC                                  0x000042c5   Thumb Code    34  fs_fat.o(i.get_EOC)
    i.get_button                             0x000042e8   Section        0  main.o(i.get_button)
    i.get_crc32                              0x0000430c   Section        0  at_lib.o(i.get_crc32)
    get_crc32                                0x0000430d   Thumb Code    34  at_lib.o(i.get_crc32)
    i.get_date                               0x00004334   Section        0  fs_fat.o(i.get_date)
    get_date                                 0x00004335   Thumb Code    46  fs_fat.o(i.get_date)
    i.get_fat_sect                           0x00004362   Section        0  fs_fat.o(i.get_fat_sect)
    get_fat_sect                             0x00004363   Thumb Code    50  fs_fat.o(i.get_fat_sect)
    i.get_file_type                          0x00004394   Section        0  at_http.o(i.get_file_type)
    get_file_type                            0x00004395   Thumb Code    92  at_http.o(i.get_file_type)
    i.get_free_clus                          0x000043fc   Section        0  fs_fat.o(i.get_free_clus)
    get_free_clus                            0x000043fd   Thumb Code   212  fs_fat.o(i.get_free_clus)
    i.get_next_field                         0x000044d8   Section        0  at_http.o(i.get_next_field)
    get_next_field                           0x000044d9   Thumb Code    40  at_http.o(i.get_next_field)
    i.get_next_par                           0x00004500   Section        0  at_http.o(i.get_next_par)
    get_next_par                             0x00004501   Thumb Code    50  at_http.o(i.get_next_par)
    i.get_rnd32                              0x00004534   Section        0  at_system.o(i.get_rnd32)
    i.get_time                               0x00004550   Section        0  fs_fat.o(i.get_time)
    get_time                                 0x00004551   Thumb Code    46  fs_fat.o(i.get_time)
    i.get_u16                                0x0000457e   Section        0  fs_fat.o(i.get_u16)
    get_u16                                  0x0000457f   Thumb Code    10  fs_fat.o(i.get_u16)
    i.get_u32                                0x00004588   Section        0  fs_fat.o(i.get_u32)
    get_u32                                  0x00004589   Thumb Code    22  fs_fat.o(i.get_u32)
    i.hex2byte                               0x0000459e   Section        0  at_http.o(i.hex2byte)
    hex2byte                                 0x0000459f   Thumb Code    18  at_http.o(i.hex2byte)
    i.http_accept_host                       0x000045b0   Section        0  at_http.o(i.http_accept_host)
    i.http_add_header                        0x000045b4   Section        0  at_http.o(i.http_add_header)
    http_add_header                          0x000045b5   Thumb Code   274  at_http.o(i.http_add_header)
    i.http_check_account                     0x000048b0   Section        0  at_http.o(i.http_check_account)
    i.http_encoding                          0x000048b4   Section        0  at_http.o(i.http_encoding)
    i.http_error_msg                         0x000048b8   Section        0  at_http.o(i.http_error_msg)
    http_error_msg                           0x000048b9   Thumb Code   162  at_http.o(i.http_error_msg)
    i.http_fclose                            0x00004a40   Section        0  at_http_uif.o(i.http_fclose)
    i.http_fgets                             0x00004a42   Section        0  at_http_uif.o(i.http_fgets)
    i.http_file_access                       0x00004a46   Section        0  at_http.o(i.http_file_access)
    i.http_finfo                             0x00004a4a   Section        0  at_http_uif.o(i.http_finfo)
    i.http_fopen                             0x00004a4e   Section        0  at_http_uif.o(i.http_fopen)
    i.http_fread                             0x00004a52   Section        0  at_http_uif.o(i.http_fread)
    i.http_get_var                           0x00004a58   Section        0  at_http.o(i.http_get_var)
    i.http_init                              0x00004ac4   Section        0  at_http.o(i.http_init)
    i.http_kill_session                      0x00004b14   Section        0  at_http.o(i.http_kill_session)
    http_kill_session                        0x00004b15   Thumb Code    94  at_http.o(i.http_kill_session)
    i.http_listener                          0x00004b74   Section        0  at_http.o(i.http_listener)
    http_listener                            0x00004b75   Thumb Code   514  at_http.o(i.http_listener)
    i.http_open_file                         0x00004d98   Section        0  at_http.o(i.http_open_file)
    http_open_file                           0x00004d99   Thumb Code   254  at_http.o(i.http_open_file)
    i.http_proc_header                       0x00004eb8   Section        0  at_http.o(i.http_proc_header)
    http_proc_header                         0x00004eb9   Thumb Code   266  at_http.o(i.http_proc_header)
    i.http_proc_multipart                    0x0000500c   Section        0  at_http.o(i.http_proc_multipart)
    http_proc_multipart                      0x0000500d   Thumb Code   338  at_http.o(i.http_proc_multipart)
    i.http_proc_post                         0x00005188   Section        0  at_http.o(i.http_proc_post)
    http_proc_post                           0x00005189   Thumb Code   240  at_http.o(i.http_proc_post)
    i.http_run_server                        0x00005280   Section        0  at_http.o(i.http_run_server)
    i.http_strcpy                            0x000055bc   Section        0  at_http.o(i.http_strcpy)
    http_strcpy                              0x000055bd   Thumb Code    30  at_http.o(i.http_strcpy)
    i.http_to_utc                            0x000055dc   Section        0  at_http.o(i.http_to_utc)
    http_to_utc                              0x000055dd   Thumb Code   162  at_http.o(i.http_to_utc)
    i.icmp_init                              0x00005684   Section        0  at_icmp.o(i.icmp_init)
    i.icmp_process                           0x00005694   Section        0  at_icmp.o(i.icmp_process)
    i.icmp_run_engine                        0x00005760   Section        0  at_icmp.o(i.icmp_run_engine)
    i.icmp_send_message                      0x000057a8   Section        0  at_icmp.o(i.icmp_send_message)
    icmp_send_message                        0x000057a9   Thumb Code   108  at_icmp.o(i.icmp_send_message)
    i.ifree_mem                              0x00005818   Section        0  at_mem.o(i.ifree_mem)
    i.igmp_is_member                         0x00005850   Section        0  net_config.o(i.igmp_is_member)
    i.igmp_process                           0x00005854   Section        0  net_config.o(i.igmp_process)
    i.init                                   0x00005858   Section        0  main.o(i.init)
    init                                     0x00005859   Thumb Code    34  main.o(i.init)
    i.init_TcpNet                            0x00005880   Section        0  at_system.o(i.init_TcpNet)
    i.init_drv                               0x000058b0   Section        0  fs_mapi.o(i.init_drv)
    init_drv                                 0x000058b1   Thumb Code   210  fs_mapi.o(i.init_drv)
    i.init_ethernet                          0x00005984   Section        0  emac_lpc17xx.o(i.init_ethernet)
    i.init_io                                0x00005bbc   Section        0  main.o(i.init_io)
    init_io                                  0x00005bbd   Thumb Code   106  main.o(i.init_io)
    i.init_mem                               0x00005c38   Section        0  at_mem.o(i.init_mem)
    i.init_system                            0x00005c98   Section        0  net_config.o(i.init_system)
    i.input_MDIO                             0x00005cc0   Section        0  emac_lpc17xx.o(i.input_MDIO)
    input_MDIO                               0x00005cc1   Thumb Code    52  emac_lpc17xx.o(i.input_MDIO)
    i.int_disable_eth                        0x00005cf8   Section        0  emac_lpc17xx.o(i.int_disable_eth)
    i.int_enable_eth                         0x00005d10   Section        0  emac_lpc17xx.o(i.int_enable_eth)
    i.ip_chk_frame                           0x00005d28   Section        0  at_ip.o(i.ip_chk_frame)
    i.ip_get_chksum                          0x00005df0   Section        0  at_ip.o(i.ip_get_chksum)
    ip_get_chksum                            0x00005df1   Thumb Code    10  at_ip.o(i.ip_get_chksum)
    i.ip_get_locadr                          0x00005dfc   Section        0  at_ip.o(i.ip_get_locadr)
    i.ip_init                                0x00005eb4   Section        0  at_ip.o(i.ip_init)
    i.ip_run_local                           0x00005ec0   Section        0  at_ip.o(i.ip_run_local)
    i.ip_send_frame                          0x00005f1c   Section        0  at_ip.o(i.ip_send_frame)
    i.is_EOC                                 0x0000606c   Section        0  fs_fat.o(i.is_EOC)
    is_EOC                                   0x0000606d   Thumb Code    48  fs_fat.o(i.is_EOC)
    i.is_subnet                              0x000060a0   Section        0  at_lib.o(i.is_subnet)
    i.main                                   0x000060b4   Section        0  main.o(i.main)
    i.main_TcpNet                            0x000060e0   Section        0  at_system.o(i.main_TcpNet)
    i.mc0_DevCtrl                            0x00006144   Section        0  file_config.o(i.mc0_DevCtrl)
    mc0_DevCtrl                              0x00006145   Thumb Code     6  file_config.o(i.mc0_DevCtrl)
    i.mc0_Init                               0x00006150   Section        0  file_config.o(i.mc0_Init)
    mc0_Init                                 0x00006151   Thumb Code     6  file_config.o(i.mc0_Init)
    i.mc0_RdInfo                             0x0000615c   Section        0  file_config.o(i.mc0_RdInfo)
    mc0_RdInfo                               0x0000615d   Thumb Code     6  file_config.o(i.mc0_RdInfo)
    i.mc0_RdSect                             0x00006168   Section        0  file_config.o(i.mc0_RdSect)
    mc0_RdSect                               0x00006169   Thumb Code     6  file_config.o(i.mc0_RdSect)
    i.mc0_UnInit                             0x00006174   Section        0  file_config.o(i.mc0_UnInit)
    mc0_UnInit                               0x00006175   Thumb Code     6  file_config.o(i.mc0_UnInit)
    i.mc0_WrSect                             0x00006180   Section        0  file_config.o(i.mc0_WrSect)
    mc0_WrSect                               0x00006181   Thumb Code     6  file_config.o(i.mc0_WrSect)
    i.mem_comp                               0x0000618c   Section        0  at_lib.o(i.mem_comp)
    i.mem_copy                               0x000061a4   Section        0  at_lib.o(i.mem_copy)
    i.mem_crc32                              0x000061ba   Section        0  at_lib.o(i.mem_crc32)
    i.mem_set                                0x000061da   Section        0  at_lib.o(i.mem_set)
    i.mem_test                               0x000061e4   Section        0  at_lib.o(i.mem_test)
    i.mmc_DevCtrl                            0x000061f8   Section        0  fs_mmc.o(i.mmc_DevCtrl)
    i.mmc_Init                               0x0000621c   Section        0  fs_mmc.o(i.mmc_Init)
    i.mmc_ReadInfo                           0x0000642e   Section        0  fs_mmc.o(i.mmc_ReadInfo)
    i.mmc_ReadSector                         0x0000648c   Section        0  fs_mmc.o(i.mmc_ReadSector)
    i.mmc_UnInit                             0x000064e4   Section        0  fs_mmc.o(i.mmc_UnInit)
    i.mmc_WriteSector                        0x000064fc   Section        0  fs_mmc.o(i.mmc_WriteSector)
    i.mmc_command                            0x00006558   Section        0  fs_mmc.o(i.mmc_command)
    mmc_command                              0x00006559   Thumb Code   162  fs_mmc.o(i.mmc_command)
    i.mmc_fill_cid                           0x000065fa   Section        0  fs_mmc.o(i.mmc_fill_cid)
    mmc_fill_cid                             0x000065fb   Thumb Code   134  fs_mmc.o(i.mmc_fill_cid)
    i.mmc_read_block                         0x00006680   Section        0  fs_mmc.o(i.mmc_read_block)
    mmc_read_block                           0x00006681   Thumb Code   112  fs_mmc.o(i.mmc_read_block)
    i.mmc_read_cid                           0x000066f0   Section        0  fs_mmc.o(i.mmc_read_cid)
    mmc_read_cid                             0x000066f1   Thumb Code    60  fs_mmc.o(i.mmc_read_cid)
    i.mmc_read_csd                           0x0000672c   Section        0  fs_mmc.o(i.mmc_read_csd)
    mmc_read_csd                             0x0000672d   Thumb Code   214  fs_mmc.o(i.mmc_read_csd)
    i.mmc_read_info                          0x00006808   Section        0  fs_mmc.o(i.mmc_read_info)
    mmc_read_info                            0x00006809   Thumb Code    80  fs_mmc.o(i.mmc_read_info)
    i.mmc_write_block                        0x00006858   Section        0  fs_mmc.o(i.mmc_write_block)
    mmc_write_block                          0x00006859   Thumb Code   142  fs_mmc.o(i.mmc_write_block)
    i.name_analyse                           0x000068ec   Section        0  fs_fat.o(i.name_analyse)
    name_analyse                             0x000068ed   Thumb Code   122  fs_fat.o(i.name_analyse)
    i.name_hash                              0x00006966   Section        0  fs_fat.o(i.name_hash)
    name_hash                                0x00006967   Thumb Code     8  fs_fat.o(i.name_hash)
    i.name_strip                             0x0000696e   Section        0  fs_fat.o(i.name_strip)
    name_strip                               0x0000696f   Thumb Code    82  fs_fat.o(i.name_strip)
    i.nbns_init                              0x000069c0   Section        0  at_nbns.o(i.nbns_init)
    i.nbns_listener                          0x000069e8   Section        0  at_nbns.o(i.nbns_listener)
    nbns_listener                            0x000069e9   Thumb Code   334  at_nbns.o(i.nbns_listener)
    i.nrd_u32be                              0x00006b48   Section        0  at_lib.o(i.nrd_u32be)
    i.nwr_u16be                              0x00006b5e   Section        0  at_lib.o(i.nwr_u16be)
    i.nwr_u32be                              0x00006b66   Section        0  at_lib.o(i.nwr_u32be)
    i.output_MDIO                            0x00006b78   Section        0  emac_lpc17xx.o(i.output_MDIO)
    output_MDIO                              0x00006b79   Thumb Code    70  emac_lpc17xx.o(i.output_MDIO)
    i.path_open                              0x00006bc4   Section        0  fs_fat.o(i.path_open)
    path_open                                0x00006bc5   Thumb Code   172  fs_fat.o(i.path_open)
    i.ppp_send_frame                         0x00006c70   Section        0  net_config.o(i.ppp_send_frame)
    i.proc_opt_renew                         0x00006c74   Section        0  at_dhcp.o(i.proc_opt_renew)
    proc_opt_renew                           0x00006c75   Thumb Code    98  at_dhcp.o(i.proc_opt_renew)
    i.proc_opt_req                           0x00006cdc   Section        0  at_dhcp.o(i.proc_opt_req)
    proc_opt_req                             0x00006cdd   Thumb Code   216  at_dhcp.o(i.proc_opt_req)
    i.proc_opt_sel                           0x00006dbc   Section        0  at_dhcp.o(i.proc_opt_sel)
    proc_opt_sel                             0x00006dbd   Thumb Code    48  at_dhcp.o(i.proc_opt_sel)
    i.proc_req_line                          0x00006df0   Section        0  at_http.o(i.proc_req_line)
    proc_req_line                            0x00006df1   Thumb Code    36  at_http.o(i.proc_req_line)
    i.put_in_queue                           0x00006e18   Section        0  at_ethernet.o(i.put_in_queue)
    i.read_PHY                               0x00006e40   Section        0  emac_lpc17xx.o(i.read_PHY)
    read_PHY                                 0x00006e41   Thumb Code   132  emac_lpc17xx.o(i.read_PHY)
    i.read_script_line                       0x00006ecc   Section        0  at_http.o(i.read_script_line)
    read_script_line                         0x00006ecd   Thumb Code   160  at_http.o(i.read_script_line)
    i.read_sector                            0x00006f6c   Section        0  fs_fat.o(i.read_sector)
    read_sector                              0x00006f6d   Thumb Code    82  fs_fat.o(i.read_sector)
    i.resize_mem                             0x00006fc0   Section        0  at_mem.o(i.resize_mem)
    i.run_system                             0x00007008   Section        0  net_config.o(i.run_system)
    i.rx_descr_init                          0x00007028   Section        0  emac_lpc17xx.o(i.rx_descr_init)
    rx_descr_init                            0x00007029   Thumb Code    84  emac_lpc17xx.o(i.rx_descr_init)
    i.search_delim                           0x00007090   Section        0  at_http.o(i.search_delim)
    search_delim                             0x00007091   Thumb Code    76  at_http.o(i.search_delim)
    i.send_frame                             0x000070dc   Section        0  emac_lpc17xx.o(i.send_frame)
    i.sendchar                               0x00007124   Section        0  retarget.o(i.sendchar)
    i.set_next_clus                          0x0000713c   Section        0  fs_fat.o(i.set_next_clus)
    set_next_clus                            0x0000713d   Thumb Code   148  fs_fat.o(i.set_next_clus)
    i.set_root_clus                          0x000071d0   Section        0  fs_fat.o(i.set_root_clus)
    set_root_clus                            0x000071d1   Thumb Code    14  fs_fat.o(i.set_root_clus)
    i.set_u16                                0x000071de   Section        0  fs_fat.o(i.set_u16)
    set_u16                                  0x000071df   Thumb Code     8  fs_fat.o(i.set_u16)
    i.set_u32                                0x000071e6   Section        0  fs_fat.o(i.set_u32)
    set_u32                                  0x000071e7   Thumb Code    16  fs_fat.o(i.set_u32)
    i.sfn_extract                            0x000071f6   Section        0  fs_fat.o(i.sfn_extract)
    sfn_extract                              0x000071f7   Thumb Code    72  fs_fat.o(i.sfn_extract)
    i.short_ent_hash                         0x0000723e   Section        0  fs_fat.o(i.short_ent_hash)
    short_ent_hash                           0x0000723f   Thumb Code    26  fs_fat.o(i.short_ent_hash)
    i.slip_send_frame                        0x00007258   Section        0  net_config.o(i.slip_send_frame)
    i.sn_chksum                              0x0000725c   Section        0  fs_fat.o(i.sn_chksum)
    sn_chksum                                0x0000725d   Thumb Code    30  fs_fat.o(i.sn_chksum)
    i.str_copy                               0x0000727a   Section        0  at_lib.o(i.str_copy)
    i.str_crc32                              0x0000728c   Section        0  at_lib.o(i.str_crc32)
    i.str_pos                                0x000072a6   Section        0  at_lib.o(i.str_pos)
    i.str_scomp                              0x000072bc   Section        0  at_lib.o(i.str_scomp)
    i.str_up_case                            0x000072d6   Section        0  at_lib.o(i.str_up_case)
    i.sys_error                              0x000072f0   Section        0  net_config.o(i.sys_error)
    i.tcp_abort                              0x00007314   Section        0  at_tcp.o(i.tcp_abort)
    i.tcp_close                              0x00007364   Section        0  at_tcp.o(i.tcp_close)
    i.tcp_get_buf                            0x00007400   Section        0  at_tcp.o(i.tcp_get_buf)
    i.tcp_get_socket                         0x00007420   Section        0  at_tcp.o(i.tcp_get_socket)
    i.tcp_get_state                          0x0000746c   Section        0  at_tcp.o(i.tcp_get_state)
    i.tcp_init                               0x00007490   Section        0  at_tcp.o(i.tcp_init)
    i.tcp_listen                             0x000074a8   Section        0  at_tcp.o(i.tcp_listen)
    i.tcp_map_socket                         0x00007514   Section        0  at_tcp.o(i.tcp_map_socket)
    tcp_map_socket                           0x00007515   Thumb Code   146  at_tcp.o(i.tcp_map_socket)
    i.tcp_max_dsize                          0x000075ac   Section        0  at_tcp.o(i.tcp_max_dsize)
    i.tcp_parse_opt                          0x000075d0   Section        0  at_tcp.o(i.tcp_parse_opt)
    tcp_parse_opt                            0x000075d1   Thumb Code    94  at_tcp.o(i.tcp_parse_opt)
    i.tcp_poll_sockets                       0x00007630   Section        0  at_tcp.o(i.tcp_poll_sockets)
    i.tcp_proc_acknr                         0x000078b4   Section        0  at_tcp.o(i.tcp_proc_acknr)
    tcp_proc_acknr                           0x000078b5   Thumb Code   194  at_tcp.o(i.tcp_proc_acknr)
    i.tcp_proc_dupack                        0x0000797c   Section        0  at_tcp.o(i.tcp_proc_dupack)
    tcp_proc_dupack                          0x0000797d   Thumb Code    82  at_tcp.o(i.tcp_proc_dupack)
    i.tcp_process                            0x000079d0   Section        0  at_tcp.o(i.tcp_process)
    i.tcp_que_free                           0x00007e88   Section        0  at_tcp.o(i.tcp_que_free)
    tcp_que_free                             0x00007e89   Thumb Code    26  at_tcp.o(i.tcp_que_free)
    i.tcp_que_init                           0x00007ea2   Section        0  at_tcp.o(i.tcp_que_init)
    tcp_que_init                             0x00007ea3   Thumb Code    26  at_tcp.o(i.tcp_que_init)
    i.tcp_que_resend                         0x00007ebc   Section        0  at_tcp.o(i.tcp_que_resend)
    tcp_que_resend                           0x00007ebd   Thumb Code   142  at_tcp.o(i.tcp_que_resend)
    i.tcp_send                               0x00007f50   Section        0  at_tcp.o(i.tcp_send)
    i.tcp_send_ctrl                          0x00008024   Section        0  at_tcp.o(i.tcp_send_ctrl)
    tcp_send_ctrl                            0x00008025   Thumb Code   106  at_tcp.o(i.tcp_send_ctrl)
    i.tcp_send_data                          0x0000808e   Section        0  at_tcp.o(i.tcp_send_data)
    tcp_send_data                            0x0000808f   Thumb Code    80  at_tcp.o(i.tcp_send_data)
    i.tcp_send_reset                         0x000080de   Section        0  at_tcp.o(i.tcp_send_reset)
    tcp_send_reset                           0x000080df   Thumb Code   104  at_tcp.o(i.tcp_send_reset)
    i.tcp_set_cwnd                           0x00008146   Section        0  at_tcp.o(i.tcp_set_cwnd)
    tcp_set_cwnd                             0x00008147   Thumb Code    38  at_tcp.o(i.tcp_set_cwnd)
    i.tcp_transit                            0x0000816c   Section        0  at_tcp.o(i.tcp_transit)
    tcp_transit                              0x0000816d   Thumb Code   100  at_tcp.o(i.tcp_transit)
    i.tcp_write                              0x000081d4   Section        0  at_tcp.o(i.tcp_write)
    tcp_write                                0x000081d5   Thumb Code   190  at_tcp.o(i.tcp_write)
    i.timer_poll                             0x00008298   Section        0  main.o(i.timer_poll)
    timer_poll                               0x00008299   Thumb Code    26  main.o(i.timer_poll)
    i.timer_tick                             0x000082b8   Section        0  at_system.o(i.timer_tick)
    i.turnaround_MDIO                        0x000082cc   Section        0  emac_lpc17xx.o(i.turnaround_MDIO)
    turnaround_MDIO                          0x000082cd   Thumb Code    38  emac_lpc17xx.o(i.turnaround_MDIO)
    i.tx_descr_init                          0x000082f8   Section        0  emac_lpc17xx.o(i.tx_descr_init)
    tx_descr_init                            0x000082f9   Thumb Code    76  emac_lpc17xx.o(i.tx_descr_init)
    i.udp_close                              0x00008354   Section        0  at_udp.o(i.udp_close)
    i.udp_get_buf                            0x00008380   Section        0  at_udp.o(i.udp_get_buf)
    i.udp_get_socket                         0x000083a0   Section        0  at_udp.o(i.udp_get_socket)
    i.udp_init                               0x000083e4   Section        0  at_udp.o(i.udp_init)
    i.udp_open                               0x000083fc   Section        0  at_udp.o(i.udp_open)
    i.udp_port_in_use                        0x00008464   Section        0  at_udp.o(i.udp_port_in_use)
    udp_port_in_use                          0x00008465   Thumb Code    40  at_udp.o(i.udp_port_in_use)
    i.udp_process                            0x00008490   Section        0  at_udp.o(i.udp_process)
    i.udp_release_socket                     0x00008548   Section        0  at_udp.o(i.udp_release_socket)
    i.udp_send                               0x00008578   Section        0  at_udp.o(i.udp_send)
    i.utc_to_http                            0x00008694   Section        0  at_http.o(i.utc_to_http)
    utc_to_http                              0x00008695   Thumb Code   180  at_http.o(i.utc_to_http)
    i.write_PHY                              0x00008774   Section        0  emac_lpc17xx.o(i.write_PHY)
    write_PHY                                0x00008775   Thumb Code   126  emac_lpc17xx.o(i.write_PHY)
    i.write_cache                            0x000087fc   Section        0  fs_fat.o(i.write_cache)
    write_cache                              0x000087fd   Thumb Code   174  fs_fat.o(i.write_cache)
    i.write_fat_link                         0x000088aa   Section        0  fs_fat.o(i.write_fat_link)
    write_fat_link                           0x000088ab   Thumb Code   232  fs_fat.o(i.write_fat_link)
    i.write_sector                           0x00008992   Section        0  fs_fat.o(i.write_sector)
    write_sector                             0x00008993   Thumb Code    48  fs_fat.o(i.write_sector)
    locale$$code                             0x000089c4   Section       44  lc_ctype_c.o(locale$$code)
    .constdata                               0x000089f0   Section       48  file_config.o(.constdata)
    .constdata                               0x00008a20   Section       32  spi_lpc17xx.o(.constdata)
    .constdata                               0x00008a40   Section       16  main.o(.constdata)
    .constdata                               0x00008a50   Section    320852  web.o(.constdata)
    Web                                      0x00008a54   Data       320800  web.o(.constdata)
    .constdata                               0x00056fa4   Section      152  net_config.o(.constdata)
    .constdata                               0x0005703c   Section       16  fs_mmc.o(.constdata)
    tim_val                                  0x0005703c   Data          16  fs_mmc.o(.constdata)
    .constdata                               0x0005704c   Section        8  at_ip.o(.constdata)
    IP_Localhost                             0x00057050   Data           4  at_ip.o(.constdata)
    .constdata                               0x00057054   Section      244  at_http.o(.constdata)
    DYear                                    0x00057054   Data           6  at_http.o(.constdata)
    Month                                    0x0005705a   Data          48  at_http.o(.constdata)
    WkDay                                    0x0005708a   Data          28  at_http.o(.constdata)
    DMonth                                   0x000570a6   Data          24  at_http.o(.constdata)
    ftype                                    0x000570be   Data         138  at_http.o(.constdata)
    .constdata                               0x00057148   Section        8  at_nbns.o(.constdata)
    nbns_ttllen                              0x00057148   Data           8  at_nbns.o(.constdata)
    .constdata                               0x00057150   Section        6  at_ethernet.o(.constdata)
    .constdata                               0x00057158   Section     1196  fs_fat.o(.constdata)
    IniDevCfg                                0x00057158   Data         156  fs_fat.o(.constdata)
    ChIndex                                  0x000571f4   Data          13  fs_fat.o(.constdata)
    crc32_table                              0x00057204   Data        1024  fs_fat.o(.constdata)
    .constdata                               0x00057604   Section        6  at_arp.o(.constdata)
    NullAdr                                  0x00057604   Data           6  at_arp.o(.constdata)
    .constdata                               0x0005760a   Section       86  http_err.o(.constdata)
    .constdata                               0x00057660   Section       81  http_err.o(.constdata)
    .constdata                               0x000576b1   Section       78  http_err.o(.constdata)
    .constdata                               0x000576ff   Section       75  http_err.o(.constdata)
    .constdata                               0x0005774a   Section       47  http_err.o(.constdata)
    .constdata                               0x00057779   Section      136  http_err.o(.constdata)
    .constdata                               0x00057801   Section       40  _printf_hex_ptr.o(.constdata)
    uc_hextab                                0x00057801   Data          20  _printf_hex_ptr.o(.constdata)
    lc_hextab                                0x00057815   Data          20  _printf_hex_ptr.o(.constdata)
    .constdata                               0x00057829   Section       17  __printf_flags_ss_wp.o(.constdata)
    maptable                                 0x00057829   Data          17  __printf_flags_ss_wp.o(.constdata)
    .conststring                             0x0005783c   Section       29  net_config.o(.conststring)
    locale$$data                             0x0005789c   Section      272  lc_ctype_c.o(locale$$data)
    __lcctype_c_name                         0x000578a0   Data           2  lc_ctype_c.o(locale$$data)
    __lcctype_c_start                        0x000578a8   Data           0  lc_ctype_c.o(locale$$data)
    __lcctype_c_end                          0x000579ac   Data           0  lc_ctype_c.o(locale$$data)
    .data                                    0x10000000   Section       50  main.o(.data)
    .data                                    0x10000034   Section        4  system_lpc17xx.o(.data)
    .data                                    0x10000038   Section        1  http_cgi.o(.data)
    P2                                       0x10000038   Data           1  http_cgi.o(.data)
    .data                                    0x10000039   Section       22  net_config.o(.data)
    .data                                    0x1000004f   Section        1  fs_mapi.o(.data)
    cfg_done                                 0x1000004f   Data           1  fs_mapi.o(.data)
    .data                                    0x10000050   Section       12  at_ip.o(.data)
    ip_id                                    0x10000050   Data           2  at_ip.o(.data)
    ip_control                               0x10000054   Data           8  at_ip.o(.data)
    .data                                    0x1000005c   Section        4  at_tcp.o(.data)
    socket                                   0x1000005c   Data           1  at_tcp.o(.data)
    no_ack                                   0x1000005d   Data           1  at_tcp.o(.data)
    port                                     0x1000005e   Data           2  at_tcp.o(.data)
    .data                                    0x10000060   Section        2  at_udp.o(.data)
    port                                     0x10000060   Data           2  at_udp.o(.data)
    .data                                    0x10000064   Section       12  at_http.o(.data)
    session                                  0x10000064   Data           1  at_http.o(.data)
    cgi                                      0x10000068   Data           8  at_http.o(.data)
    .data                                    0x10000070   Section        1  at_nbns.o(.data)
    nbns_Socket                              0x10000070   Data           1  at_nbns.o(.data)
    .data                                    0x10000074   Section        8  at_arp.o(.data)
    entry                                    0x10000074   Data           1  at_arp.o(.data)
    probe_ip                                 0x10000078   Data           4  at_arp.o(.data)
    .bss                                     0x1000007c   Section     5536  file_config.o(.bss)
    mc0_cache                                0x1000019c   Data        5120  file_config.o(.bss)
    mc0_vol                                  0x1000159c   Data         116  file_config.o(.bss)
    mmc0_dev                                 0x10001610   Data          12  file_config.o(.bss)
    .bss                                     0x1000161c   Section    12972  net_config.o(.bss)
    mem_pool                                 0x1000161c   Data       12000  net_config.o(.bss)
    arp_table                                0x100044fc   Data         140  net_config.o(.bss)
    udp_scb                                  0x10004588   Data          24  net_config.o(.bss)
    tcp_scb                                  0x100045a0   Data         476  net_config.o(.bss)
    http_scb                                 0x1000477c   Data         312  net_config.o(.bss)
    http_passw                               0x100048b4   Data          20  net_config.o(.bss)
    .bss                                     0x100048c8   Section       16  at_icmp.o(.bss)
    icmp_control                             0x100048c8   Data          16  at_icmp.o(.bss)
    .bss                                     0x100048d8   Section       32  at_dhcp.o(.bss)
    dhcp_control                             0x100048d8   Data          32  at_dhcp.o(.bss)
    .bss                                     0x100048f8   Section      132  at_ethernet.o(.bss)
    eth_control                              0x100048f8   Data         132  at_ethernet.o(.bss)
    .bss                                     0x1000497c   Section       16  at_mem.o(.bss)
    mem_control                              0x1000497c   Data          16  at_mem.o(.bss)
    .bss                                     0x1000498c   Section       76  at_system.o(.bss)
    .bss                                     0x100049d8   Section       96  libspace.o(.bss)
    HEAP                                     0x10004a38   Section      512  startup_lpc17xx.o(HEAP)
    Heap_Mem                                 0x10004a38   Data         512  startup_lpc17xx.o(HEAP)
    STACK                                    0x10004c38   Section     2048  startup_lpc17xx.o(STACK)
    Stack_Mem                                0x10004c38   Data        2048  startup_lpc17xx.o(STACK)
    __initial_sp                             0x10005438   Data           0  startup_lpc17xx.o(STACK)
    .data                                    0x2007c000   Section        5  emac_lpc17xx.o(.data)
    dev_175x                                 0x2007c004   Data           1  emac_lpc17xx.o(.data)
    .bss                                     0x2007c008   Section    10852  emac_lpc17xx.o(.bss)
    Rx_Desc                                  0x2007c008   Data          32  emac_lpc17xx.o(.bss)
    Rx_Stat                                  0x2007c028   Data          32  emac_lpc17xx.o(.bss)
    Tx_Desc                                  0x2007c048   Data          24  emac_lpc17xx.o(.bss)
    Tx_Stat                                  0x2007c060   Data          12  emac_lpc17xx.o(.bss)
    rx_buf                                   0x2007c06c   Data        6144  emac_lpc17xx.o(.bss)
    tx_buf                                   0x2007d86c   Data        4608  emac_lpc17xx.o(.bss)

    Global Symbols

    Symbol Name                              Value     Ov Type        Size  Object(Section)

    BuildAttributes$$THM_ISAv4$P$D$K$B$S$PE$A:L22UL41UL21$X:L11$S22US41US21$IEEE1$IW$~IW$USESV6$~STKCKD$USESV7$~SHL$OTIME$ROPI$EBA8$UX$STANDARDLIB$REQ8$PRES8$EABIv2 0x00000000   Number         0  anon$$obj.o ABSOLUTE
    __ARM_use_no_argv                        0x00000000   Number         0  main.o ABSOLUTE
    __Vectors                                0x00000000   Data           4  startup_lpc17xx.o(RESET)
    _printf_flags                            0x00000000   Number         0  printf_stubs.o ABSOLUTE
    _printf_return_value                     0x00000000   Number         0  printf_stubs.o ABSOLUTE
    _printf_sizespec                         0x00000000   Number         0  printf_stubs.o ABSOLUTE
    _printf_widthprec                        0x00000000   Number         0  printf_stubs.o ABSOLUTE
    __ARM_exceptions_init                     - Undefined Weak Reference
    __alloca_initialize                       - Undefined Weak Reference
    __arm_preinit_                            - Undefined Weak Reference
    __cpp_initialize__aeabi_                  - Undefined Weak Reference
    __cxa_finalize                            - Undefined Weak Reference
    __sigvec_lookup                           - Undefined Weak Reference
    __user_heap_extent                        - Undefined Weak Reference
    _atexit_init                              - Undefined Weak Reference
    _call_atexit_fns                          - Undefined Weak Reference
    _clock_init                               - Undefined Weak Reference
    _fp_trap_init                             - Undefined Weak Reference
    _fp_trap_shutdown                         - Undefined Weak Reference
    _get_lc_collate                           - Undefined Weak Reference
    _get_lc_monetary                          - Undefined Weak Reference
    _get_lc_numeric                           - Undefined Weak Reference
    _get_lc_time                              - Undefined Weak Reference
    _getenv_init                              - Undefined Weak Reference
    _handle_redirection                       - Undefined Weak Reference
    _mutex_acquire                            - Undefined Weak Reference
    _mutex_free                               - Undefined Weak Reference
    _mutex_release                            - Undefined Weak Reference
    _printf_mbtowc                            - Undefined Weak Reference
    _printf_truncate_signed                   - Undefined Weak Reference
    _printf_truncate_unsigned                 - Undefined Weak Reference
    _rand_init                                - Undefined Weak Reference
    _scanf_longlong                           - Undefined Weak Reference
    _scanf_mbtowc                             - Undefined Weak Reference
    _scanf_real                               - Undefined Weak Reference
    _scanf_string                             - Undefined Weak Reference
    _scanf_wctomb                             - Undefined Weak Reference
    _scanf_wstring                            - Undefined Weak Reference
    _signal_finish                            - Undefined Weak Reference
    _signal_init                              - Undefined Weak Reference
    poll_ethernet                             - Undefined Weak Reference
    __main                                   0x000000cd   Thumb Code     8  __main.o(!!!main)
    __scatterload                            0x000000d5   Thumb Code     0  __scatter.o(!!!scatter)
    __scatterload_rt2                        0x000000d5   Thumb Code    44  __scatter.o(!!!scatter)
    __scatterload_rt2_thumb_only             0x000000d5   Thumb Code     0  __scatter.o(!!!scatter)
    __scatterload_null                       0x000000e3   Thumb Code     0  __scatter.o(!!!scatter)
    __scatterload_copy                       0x00000109   Thumb Code    26  __scatter_copy.o(!!handler_copy)
    __scatterload_zeroinit                   0x00000125   Thumb Code    28  __scatter_zi.o(!!handler_zi)
    _printf_n                                0x00000141   Thumb Code     0  _printf_n.o(.ARM.Collect$$_printf_percent$$00000001)
    _printf_percent                          0x00000141   Thumb Code     0  _printf_percent.o(.ARM.Collect$$_printf_percent$$00000000)
    _printf_p                                0x00000147   Thumb Code     0  _printf_p.o(.ARM.Collect$$_printf_percent$$00000002)
    _printf_d                                0x0000014d   Thumb Code     0  _printf_d.o(.ARM.Collect$$_printf_percent$$00000009)
    _printf_c                                0x00000153   Thumb Code     0  _printf_c.o(.ARM.Collect$$_printf_percent$$00000013)
    _printf_s                                0x00000159   Thumb Code     0  _printf_s.o(.ARM.Collect$$_printf_percent$$00000014)
    _printf_percent_end                      0x0000015f   Thumb Code     0  _printf_percent_end.o(.ARM.Collect$$_printf_percent$$00000017)
    __rt_lib_init                            0x00000163   Thumb Code     0  libinit.o(.ARM.Collect$$libinit$$00000000)
    __rt_lib_init_fp_1                       0x00000165   Thumb Code     0  libinit2.o(.ARM.Collect$$libinit$$00000002)
    __rt_lib_init_heap_1                     0x00000165   Thumb Code     0  libinit2.o(.ARM.Collect$$libinit$$0000000A)
    __rt_lib_init_lc_common                  0x00000165   Thumb Code     0  libinit2.o(.ARM.Collect$$libinit$$0000000F)
    __rt_lib_init_preinit_1                  0x00000165   Thumb Code     0  libinit2.o(.ARM.Collect$$libinit$$00000004)
    __rt_lib_init_rand_1                     0x00000165   Thumb Code     0  libinit2.o(.ARM.Collect$$libinit$$0000000E)
    __rt_lib_init_user_alloc_1               0x00000165   Thumb Code     0  libinit2.o(.ARM.Collect$$libinit$$0000000C)
    __rt_lib_init_lc_collate_1               0x0000016b   Thumb Code     0  libinit2.o(.ARM.Collect$$libinit$$00000011)
    __rt_lib_init_lc_ctype_2                 0x0000016b   Thumb Code     0  libinit2.o(.ARM.Collect$$libinit$$00000012)
    __rt_lib_init_alloca_1                   0x00000177   Thumb Code     0  libinit2.o(.ARM.Collect$$libinit$$0000002E)
    __rt_lib_init_argv_1                     0x00000177   Thumb Code     0  libinit2.o(.ARM.Collect$$libinit$$0000002C)
    __rt_lib_init_atexit_1                   0x00000177   Thumb Code     0  libinit2.o(.ARM.Collect$$libinit$$0000001B)
    __rt_lib_init_clock_1                    0x00000177   Thumb Code     0  libinit2.o(.ARM.Collect$$libinit$$00000021)
    __rt_lib_init_cpp_1                      0x00000177   Thumb Code     0  libinit2.o(.ARM.Collect$$libinit$$00000032)
    __rt_lib_init_exceptions_1               0x00000177   Thumb Code     0  libinit2.o(.ARM.Collect$$libinit$$00000030)
    __rt_lib_init_fp_trap_1                  0x00000177   Thumb Code     0  libinit2.o(.ARM.Collect$$libinit$$0000001F)
    __rt_lib_init_getenv_1                   0x00000177   Thumb Code     0  libinit2.o(.ARM.Collect$$libinit$$00000023)
    __rt_lib_init_lc_ctype_1                 0x00000177   Thumb Code     0  libinit2.o(.ARM.Collect$$libinit$$00000013)
    __rt_lib_init_lc_monetary_1              0x00000177   Thumb Code     0  libinit2.o(.ARM.Collect$$libinit$$00000015)
    __rt_lib_init_lc_numeric_1               0x00000177   Thumb Code     0  libinit2.o(.ARM.Collect$$libinit$$00000017)
    __rt_lib_init_lc_time_1                  0x00000177   Thumb Code     0  libinit2.o(.ARM.Collect$$libinit$$00000019)
    __rt_lib_init_return                     0x00000177   Thumb Code     0  libinit2.o(.ARM.Collect$$libinit$$00000033)
    __rt_lib_init_signal_1                   0x00000177   Thumb Code     0  libinit2.o(.ARM.Collect$$libinit$$0000001D)
    __rt_lib_init_stdio_1                    0x00000177   Thumb Code     0  libinit2.o(.ARM.Collect$$libinit$$00000025)
    __rt_lib_shutdown                        0x00000179   Thumb Code     0  libshutdown.o(.ARM.Collect$$libshutdown$$00000000)
    __rt_lib_shutdown_cpp_1                  0x0000017b   Thumb Code     0  libshutdown2.o(.ARM.Collect$$libshutdown$$00000002)
    __rt_lib_shutdown_fp_trap_1              0x0000017b   Thumb Code     0  libshutdown2.o(.ARM.Collect$$libshutdown$$00000007)
    __rt_lib_shutdown_heap_1                 0x0000017b   Thumb Code     0  libshutdown2.o(.ARM.Collect$$libshutdown$$0000000F)
    __rt_lib_shutdown_return                 0x0000017b   Thumb Code     0  libshutdown2.o(.ARM.Collect$$libshutdown$$00000010)
    __rt_lib_shutdown_signal_1               0x0000017b   Thumb Code     0  libshutdown2.o(.ARM.Collect$$libshutdown$$0000000A)
    __rt_lib_shutdown_stdio_1                0x0000017b   Thumb Code     0  libshutdown2.o(.ARM.Collect$$libshutdown$$00000004)
    __rt_lib_shutdown_user_alloc_1           0x0000017b   Thumb Code     0  libshutdown2.o(.ARM.Collect$$libshutdown$$0000000C)
    __rt_entry                               0x0000017d   Thumb Code     0  __rtentry.o(.ARM.Collect$$rtentry$$00000000)
    __rt_entry_presh_1                       0x0000017d   Thumb Code     0  __rtentry2.o(.ARM.Collect$$rtentry$$00000002)
    __rt_entry_sh                            0x0000017d   Thumb Code     0  __rtentry4.o(.ARM.Collect$$rtentry$$00000004)
    __rt_entry_li                            0x00000183   Thumb Code     0  __rtentry2.o(.ARM.Collect$$rtentry$$0000000A)
    __rt_entry_postsh_1                      0x00000183   Thumb Code     0  __rtentry2.o(.ARM.Collect$$rtentry$$00000009)
    __rt_entry_main                          0x00000187   Thumb Code     0  __rtentry2.o(.ARM.Collect$$rtentry$$0000000D)
    __rt_entry_postli_1                      0x00000187   Thumb Code     0  __rtentry2.o(.ARM.Collect$$rtentry$$0000000C)
    __rt_exit                                0x0000018f   Thumb Code     0  rtexit.o(.ARM.Collect$$rtexit$$00000000)
    __rt_exit_ls                             0x00000191   Thumb Code     0  rtexit2.o(.ARM.Collect$$rtexit$$00000003)
    __rt_exit_prels_1                        0x00000191   Thumb Code     0  rtexit2.o(.ARM.Collect$$rtexit$$00000002)
    __rt_exit_exit                           0x00000195   Thumb Code     0  rtexit2.o(.ARM.Collect$$rtexit$$00000004)
    Reset_Handler                            0x0000019d   Thumb Code     8  startup_lpc17xx.o(.text)
    NMI_Handler                              0x000001a5   Thumb Code     2  startup_lpc17xx.o(.text)
    HardFault_Handler                        0x000001a7   Thumb Code     2  startup_lpc17xx.o(.text)
    MemManage_Handler                        0x000001a9   Thumb Code     2  startup_lpc17xx.o(.text)
    BusFault_Handler                         0x000001ab   Thumb Code     2  startup_lpc17xx.o(.text)
    UsageFault_Handler                       0x000001ad   Thumb Code     2  startup_lpc17xx.o(.text)
    SVC_Handler                              0x000001af   Thumb Code     2  startup_lpc17xx.o(.text)
    DebugMon_Handler                         0x000001b1   Thumb Code     2  startup_lpc17xx.o(.text)
    PendSV_Handler                           0x000001b3   Thumb Code     2  startup_lpc17xx.o(.text)
    SysTick_Handler                          0x000001b5   Thumb Code     2  startup_lpc17xx.o(.text)
    ADC_IRQHandler                           0x000001b7   Thumb Code     0  startup_lpc17xx.o(.text)
    BOD_IRQHandler                           0x000001b7   Thumb Code     0  startup_lpc17xx.o(.text)
    CANActivity_IRQHandler                   0x000001b7   Thumb Code     0  startup_lpc17xx.o(.text)
    CAN_IRQHandler                           0x000001b7   Thumb Code     0  startup_lpc17xx.o(.text)
    DMA_IRQHandler                           0x000001b7   Thumb Code     0  startup_lpc17xx.o(.text)
    EINT0_IRQHandler                         0x000001b7   Thumb Code     0  startup_lpc17xx.o(.text)
    EINT1_IRQHandler                         0x000001b7   Thumb Code     0  startup_lpc17xx.o(.text)
    EINT2_IRQHandler                         0x000001b7   Thumb Code     0  startup_lpc17xx.o(.text)
    EINT3_IRQHandler                         0x000001b7   Thumb Code     0  startup_lpc17xx.o(.text)
    I2C0_IRQHandler                          0x000001b7   Thumb Code     0  startup_lpc17xx.o(.text)
    I2C1_IRQHandler                          0x000001b7   Thumb Code     0  startup_lpc17xx.o(.text)
    I2C2_IRQHandler                          0x000001b7   Thumb Code     0  startup_lpc17xx.o(.text)
    I2S_IRQHandler                           0x000001b7   Thumb Code     0  startup_lpc17xx.o(.text)
    MCPWM_IRQHandler                         0x000001b7   Thumb Code     0  startup_lpc17xx.o(.text)
    PLL0_IRQHandler                          0x000001b7   Thumb Code     0  startup_lpc17xx.o(.text)
    PLL1_IRQHandler                          0x000001b7   Thumb Code     0  startup_lpc17xx.o(.text)
    PWM1_IRQHandler                          0x000001b7   Thumb Code     0  startup_lpc17xx.o(.text)
    QEI_IRQHandler                           0x000001b7   Thumb Code     0  startup_lpc17xx.o(.text)
    RIT_IRQHandler                           0x000001b7   Thumb Code     0  startup_lpc17xx.o(.text)
    RTC_IRQHandler                           0x000001b7   Thumb Code     0  startup_lpc17xx.o(.text)
    SPI_IRQHandler                           0x000001b7   Thumb Code     0  startup_lpc17xx.o(.text)
    SSP0_IRQHandler                          0x000001b7   Thumb Code     0  startup_lpc17xx.o(.text)
    SSP1_IRQHandler                          0x000001b7   Thumb Code     0  startup_lpc17xx.o(.text)
    TIMER0_IRQHandler                        0x000001b7   Thumb Code     0  startup_lpc17xx.o(.text)
    TIMER1_IRQHandler                        0x000001b7   Thumb Code     0  startup_lpc17xx.o(.text)
    TIMER2_IRQHandler                        0x000001b7   Thumb Code     0  startup_lpc17xx.o(.text)
    TIMER3_IRQHandler                        0x000001b7   Thumb Code     0  startup_lpc17xx.o(.text)
    UART0_IRQHandler                         0x000001b7   Thumb Code     0  startup_lpc17xx.o(.text)
    UART1_IRQHandler                         0x000001b7   Thumb Code     0  startup_lpc17xx.o(.text)
    UART2_IRQHandler                         0x000001b7   Thumb Code     0  startup_lpc17xx.o(.text)
    UART3_IRQHandler                         0x000001b7   Thumb Code     0  startup_lpc17xx.o(.text)
    USBActivity_IRQHandler                   0x000001b7   Thumb Code     0  startup_lpc17xx.o(.text)
    USB_IRQHandler                           0x000001b7   Thumb Code     0  startup_lpc17xx.o(.text)
    WDT_IRQHandler                           0x000001b7   Thumb Code     0  startup_lpc17xx.o(.text)
    __user_initial_stackheap                 0x000001b9   Thumb Code     0  startup_lpc17xx.o(.text)
    __semihosting$guard                      0x000001dd   Thumb Code     0  use_no_semi.o(.text)
    __use_no_semihosting_swi                 0x000001dd   Thumb Code     2  use_no_semi.o(.text)
    __2sprintf                               0x000001e1   Thumb Code    38  __2sprintf.o(.text)
    _printf_pre_padding                      0x0000020d   Thumb Code    44  _printf_pad.o(.text)
    _printf_post_padding                     0x00000239   Thumb Code    34  _printf_pad.o(.text)
    _printf_str                              0x0000025b   Thumb Code    82  _printf_str.o(.text)
    _printf_charcount                        0x000002ad   Thumb Code    40  _printf_charcount.o(.text)
    atoi                                     0x000002d5   Thumb Code    26  atoi.o(.text)
    __use_two_region_memory                  0x000002ef   Thumb Code     2  heapauxi.o(.text)
    __rt_heap_escrow                         0x000002f1   Thumb Code     2  heapauxi.o(.text)
    __rt_heap_expand                         0x000002f3   Thumb Code     2  heapauxi.o(.text)
    __aeabi_errno_addr                       0x000002f5   Thumb Code     8  rt_errno_addr_intlibspace.o(.text)
    __errno$intlibspace                      0x000002f5   Thumb Code     0  rt_errno_addr_intlibspace.o(.text)
    __rt_errno_addr$intlibspace              0x000002f5   Thumb Code     0  rt_errno_addr_intlibspace.o(.text)
    _printf_int_dec                          0x00000301   Thumb Code   104  _printf_dec.o(.text)
    _printf_hex_ptr                          0x00000379   Thumb Code    78  _printf_hex_ptr.o(.text)
    _printf_longlong_hex                     0x00000379   Thumb Code     0  _printf_hex_ptr.o(.text)
    __printf                                 0x000003cd   Thumb Code   388  __printf_flags_ss_wp.o(.text)
    __RL_FS_VER                              0x00000474   Number         0  fs_sys.o ABSOLUTE
    __RL_TCP_VER                             0x00000474   Number         0  at_system.o ABSOLUTE
    __0sscanf                                0x00000555   Thumb Code    52  __0sscanf.o(.text)
    _scanf_int                               0x00000591   Thumb Code   332  _scanf_int.o(.text)
    _fclose_internal                         0x000006dd   Thumb Code    76  fclose.o(.text)
    fclose                                   0x000006dd   Thumb Code     0  fclose.o(.text)
    strncasecmp                              0x00000729   Thumb Code    50  strncasecmp.o(.text)
    strlen                                   0x0000075b   Thumb Code    62  strlen.o(.text)
    __aeabi_memcpy                           0x00000799   Thumb Code     0  rt_memcpy_v6.o(.text)
    __rt_memcpy                              0x00000799   Thumb Code   138  rt_memcpy_v6.o(.text)
    _memcpy_lastbytes                        0x000007ff   Thumb Code     0  rt_memcpy_v6.o(.text)
    __aeabi_memcpy4                          0x00000823   Thumb Code     0  rt_memcpy_w.o(.text)
    __aeabi_memcpy8                          0x00000823   Thumb Code     0  rt_memcpy_w.o(.text)
    __rt_memcpy_w                            0x00000823   Thumb Code   100  rt_memcpy_w.o(.text)
    _memcpy_lastbytes_aligned                0x0000086b   Thumb Code     0  rt_memcpy_w.o(.text)
    __aeabi_memclr                           0x00000887   Thumb Code     0  rt_memclr.o(.text)
    __rt_memclr                              0x00000887   Thumb Code    68  rt_memclr.o(.text)
    _memset                                  0x0000088b   Thumb Code     0  rt_memclr.o(.text)
    __aeabi_memclr4                          0x000008cb   Thumb Code     0  rt_memclr_w.o(.text)
    __aeabi_memclr8                          0x000008cb   Thumb Code     0  rt_memclr_w.o(.text)
    __rt_memclr_w                            0x000008cb   Thumb Code    78  rt_memclr_w.o(.text)
    _memset_w                                0x000008cf   Thumb Code     0  rt_memclr_w.o(.text)
    strcmp                                   0x00000919   Thumb Code   128  strcmpv7m.o(.text)
    free                                     0x00000999   Thumb Code    78  h1_free.o(.text)
    tolower                                  0x000009e7   Thumb Code    26  tolower.o(.text)
    _printf_int_common                       0x00000a01   Thumb Code   178  _printf_intcommon.o(.text)
    _printf_char_common                      0x00000abf   Thumb Code    32  _printf_char_common.o(.text)
    _sputc                                   0x00000ae5   Thumb Code    10  _sputc.o(.text)
    _printf_cs_common                        0x00000aef   Thumb Code    20  _printf_char.o(.text)
    _printf_char                             0x00000b03   Thumb Code    16  _printf_char.o(.text)
    _printf_string                           0x00000b13   Thumb Code     8  _printf_char.o(.text)
    _chval                                   0x00000b1b   Thumb Code    28  _chval.o(.text)
    __vfscanf_char                           0x00000b45   Thumb Code    24  scanf_char.o(.text)
    _sgetc                                   0x00000b65   Thumb Code    30  _sgetc.o(.text)
    _sbackspace                              0x00000b83   Thumb Code    34  _sgetc.o(.text)
    strtol                                   0x00000ba5   Thumb Code   112  strtol.o(.text)
    _seterr                                  0x00000c15   Thumb Code    20  stdio.o(.text)
    _writebuf                                0x00000c29   Thumb Code    84  stdio.o(.text)
    _fflush                                  0x00000c7d   Thumb Code    70  stdio.o(.text)
    _deferredlazyseek                        0x00000cc3   Thumb Code    60  stdio.o(.text)
    __user_libspace                          0x00000d05   Thumb Code     8  libspace.o(.text)
    __user_perproc_libspace                  0x00000d05   Thumb Code     0  libspace.o(.text)
    __user_perthread_libspace                0x00000d05   Thumb Code     0  libspace.o(.text)
    __rt_ctype_table                         0x00000d0d   Thumb Code    16  rt_ctype_table.o(.text)
    __rt_heap_descriptor                     0x00000d1d   Thumb Code     8  rt_heap_descriptor_intlibspace.o(.text)
    isspace                                  0x00000d25   Thumb Code    18  isspace.o(.text)
    __vfscanf                                0x00000d39   Thumb Code   878  _scanf.o(.text)
    _strtoul                                 0x000010ad   Thumb Code   158  _strtoul.o(.text)
    __user_setup_stackheap                   0x0000114b   Thumb Code    74  sys_stackheap_outer.o(.text)
    __rt_locale                              0x00001195   Thumb Code     8  rt_locale_intlibspace.o(.text)
    exit                                     0x0000119d   Thumb Code    18  exit.o(.text)
    ENET_IRQHandler                          0x000011f9   Thumb Code   164  emac_lpc17xx.o(i.ENET_IRQHandler)
    LED_out                                  0x00001365   Thumb Code    50  main.o(i.LED_out)
    SER_Init                                 0x000013d5   Thumb Code    64  serial.o(i.SER_Init)
    SER_PutChar                              0x00001421   Thumb Code    20  serial.o(i.SER_PutChar)
    SystemInit                               0x000014bd   Thumb Code   302  system_lpc17xx.o(i.SystemInit)
    __sys_close                              0x0000166d   Thumb Code    74  fs_sys.o(i.__sys_close)
    __sys_seek                               0x000016c1   Thumb Code    66  fs_sys.o(i.__sys_seek)
    __sys_write                              0x0000170d   Thumb Code    80  fs_sys.o(i.__sys_write)
    _is_digit                                0x00001765   Thumb Code    14  __printf_wp.o(i._is_digit)
    _sys_close                               0x00001773   Thumb Code    22  retarget.o(i._sys_close)
    _sys_exit                                0x00001789   Thumb Code     4  retarget.o(i._sys_exit)
    _sys_seek                                0x0000178d   Thumb Code    28  retarget.o(i._sys_seek)
    _sys_write                               0x000017a9   Thumb Code    66  retarget.o(i._sys_write)
    alloc_mem                                0x00001821   Thumb Code   174  at_mem.o(i.alloc_mem)
    arp_cache_add                            0x000018d9   Thumb Code   174  at_arp.o(i.arp_cache_add)
    arp_cache_early                          0x00001a19   Thumb Code   142  at_arp.o(i.arp_cache_early)
    arp_cache_find                           0x00001ab1   Thumb Code   168  at_arp.o(i.arp_cache_find)
    arp_cache_update                         0x00001b65   Thumb Code   228  at_arp.o(i.arp_cache_update)
    arp_init                                 0x00001c59   Thumb Code    34  at_arp.o(i.arp_init)
    arp_notify                               0x00001cb9   Thumb Code    26  at_arp.o(i.arp_notify)
    arp_probe                                0x00001ce1   Thumb Code    14  at_arp.o(i.arp_probe)
    arp_process                              0x00001d7d   Thumb Code   294  at_arp.o(i.arp_process)
    avail_mem                                0x0000200d   Thumb Code    22  at_mem.o(i.avail_mem)
    b64_to_asc                               0x00002029   Thumb Code   120  at_lib.o(i.b64_to_asc)
    calc_chksum16be                          0x000021e3   Thumb Code    18  at_lib.o(i.calc_chksum16be)
    cgi_func                                 0x000021f5   Thumb Code   134  http_cgi.o(i.cgi_func)
    cgi_process_data                         0x000022d5   Thumb Code   262  http_cgi.o(i.cgi_process_data)
    cgi_process_var                          0x00002419   Thumb Code   356  http_cgi.o(i.cgi_process_var)
    cgx_content_type                         0x000025ad   Thumb Code     4  at_http.o(i.cgx_content_type)
    chksum16_buf                             0x000027dd   Thumb Code    40  at_lib.o(i.chksum16_buf)
    chksum16_val                             0x00002805   Thumb Code    10  at_lib.o(i.chksum16_val)
    dhcp_cbfunc                              0x00002983   Thumb Code     2  at_dhcp.o(i.dhcp_cbfunc)
    dhcp_disable                             0x00002a91   Thumb Code    50  at_dhcp.o(i.dhcp_disable)
    dhcp_init                                0x00002acd   Thumb Code    66  at_dhcp.o(i.dhcp_init)
    dhcp_run_client                          0x00002d19   Thumb Code   440  at_dhcp.o(i.dhcp_run_client)
    efs_ffind                                0x000030ed   Thumb Code     4  file_config.o(i.efs_ffind)
    efs_fsize                                0x000030f1   Thumb Code     2  file_config.o(i.efs_fsize)
    efs_seek                                 0x000030f3   Thumb Code     4  file_config.o(i.efs_seek)
    efs_wclose                               0x000030f7   Thumb Code     4  file_config.o(i.efs_wclose)
    efs_write                                0x000030fb   Thumb Code     4  file_config.o(i.efs_write)
    elink_cmd                                0x000030ff   Thumb Code     4  file_config.o(i.elink_cmd)
    elink_flush                              0x00003103   Thumb Code     4  file_config.o(i.elink_flush)
    elink_init                               0x00003107   Thumb Code     4  file_config.o(i.elink_init)
    elink_init_path                          0x0000310b   Thumb Code     4  file_config.o(i.elink_init_path)
    elink_insert                             0x0000310f   Thumb Code     4  file_config.o(i.elink_insert)
    elink_scan                               0x00003113   Thumb Code     4  file_config.o(i.elink_scan)
    entry_pos_set                            0x00003171   Thumb Code    88  fs_fat.o(i.entry_pos_set)
    entry_read                               0x000031c9   Thumb Code    54  fs_fat.o(i.entry_read)
    eth_chk_adr                              0x0000322d   Thumb Code    10  at_ethernet.o(i.eth_chk_adr)
    eth_init_link                            0x0000323d   Thumb Code    40  at_ethernet.o(i.eth_init_link)
    eth_run_link                             0x00003271   Thumb Code   194  at_ethernet.o(i.eth_run_link)
    eth_send_frame                           0x00003345   Thumb Code   150  at_ethernet.o(i.eth_send_frame)
    fat_close                                0x000033ed   Thumb Code   216  fs_fat.o(i.fat_close)
    fat_ffind                                0x000034f5   Thumb Code   242  fs_fat.o(i.fat_ffind)
    fat_init                                 0x000035e7   Thumb Code   338  fs_fat.o(i.fat_init)
    fat_jour_init                            0x00003739   Thumb Code     4  file_config.o(i.fat_jour_init)
    fat_seek                                 0x0000373d   Thumb Code   182  fs_fat.o(i.fat_seek)
    fat_write                                0x000037f3   Thumb Code   292  fs_fat.o(i.fat_write)
    ffind                                    0x00003919   Thumb Code   434  fs_mapi.o(i.ffind)
    finit                                    0x00003ad9   Thumb Code   110  fs_mapi.o(i.finit)
    free_mem                                 0x00003ee9   Thumb Code   124  at_mem.o(i.free_mem)
    fs_cfg_drv                               0x00003f6d   Thumb Code    92  fs_mapi.o(i.fs_cfg_drv)
    fs_chk_media                             0x00003fdd   Thumb Code    46  fs_lib.o(i.fs_chk_media)
    fs_config                                0x0000400d   Thumb Code    32  file_config.o(i.fs_config)
    fs_find_drv                              0x00004039   Thumb Code    36  fs_lib.o(i.fs_find_drv)
    fs_find_iob                              0x00004065   Thumb Code    48  fs_lib.o(i.fs_find_iob)
    fs_get_date                              0x0000409d   Thumb Code     4  fs_time.o(i.fs_get_date)
    fs_get_time                              0x000040a5   Thumb Code     6  fs_time.o(i.fs_get_time)
    fs_map_drive                             0x000040ad   Thumb Code   110  fs_lib.o(i.fs_map_drive)
    fs_strpos                                0x00004125   Thumb Code    24  fs_lib.o(i.fs_strpos)
    fsj_write                                0x00004221   Thumb Code     4  file_config.o(i.fsj_write)
    getSDData                                0x00004225   Thumb Code    66  main.o(i.getSDData)
    get_button                               0x000042e9   Thumb Code    32  main.o(i.get_button)
    get_rnd32                                0x00004535   Thumb Code    18  at_system.o(i.get_rnd32)
    http_accept_host                         0x000045b1   Thumb Code     4  at_http.o(i.http_accept_host)
    http_check_account                       0x000048b1   Thumb Code     4  at_http.o(i.http_check_account)
    http_encoding                            0x000048b5   Thumb Code     4  at_http.o(i.http_encoding)
    http_fclose                              0x00004a41   Thumb Code     2  at_http_uif.o(i.http_fclose)
    http_fgets                               0x00004a43   Thumb Code     4  at_http_uif.o(i.http_fgets)
    http_file_access                         0x00004a47   Thumb Code     4  at_http.o(i.http_file_access)
    http_finfo                               0x00004a4b   Thumb Code     4  at_http_uif.o(i.http_finfo)
    http_fopen                               0x00004a4f   Thumb Code     4  at_http_uif.o(i.http_fopen)
    http_fread                               0x00004a53   Thumb Code     4  at_http_uif.o(i.http_fread)
    http_get_var                             0x00004a59   Thumb Code   104  at_http.o(i.http_get_var)
    http_init                                0x00004ac5   Thumb Code    72  at_http.o(i.http_init)
    http_run_server                          0x00005281   Thumb Code   816  at_http.o(i.http_run_server)
    icmp_init                                0x00005685   Thumb Code    10  at_icmp.o(i.icmp_init)
    icmp_process                             0x00005695   Thumb Code   198  at_icmp.o(i.icmp_process)
    icmp_run_engine                          0x00005761   Thumb Code    58  at_icmp.o(i.icmp_run_engine)
    ifree_mem                                0x00005819   Thumb Code    48  at_mem.o(i.ifree_mem)
    igmp_is_member                           0x00005851   Thumb Code     4  net_config.o(i.igmp_is_member)
    igmp_process                             0x00005855   Thumb Code     2  net_config.o(i.igmp_process)
    init_TcpNet                              0x00005881   Thumb Code    38  at_system.o(i.init_TcpNet)
    init_ethernet                            0x00005985   Thumb Code   522  emac_lpc17xx.o(i.init_ethernet)
    init_mem                                 0x00005c39   Thumb Code    86  at_mem.o(i.init_mem)
    init_system                              0x00005c99   Thumb Code    38  net_config.o(i.init_system)
    int_disable_eth                          0x00005cf9   Thumb Code    18  emac_lpc17xx.o(i.int_disable_eth)
    int_enable_eth                           0x00005d11   Thumb Code    22  emac_lpc17xx.o(i.int_enable_eth)
    ip_chk_frame                             0x00005d29   Thumb Code   190  at_ip.o(i.ip_chk_frame)
    ip_get_locadr                            0x00005dfd   Thumb Code   166  at_ip.o(i.ip_get_locadr)
    ip_init                                  0x00005eb5   Thumb Code     8  at_ip.o(i.ip_init)
    ip_run_local                             0x00005ec1   Thumb Code    82  at_ip.o(i.ip_run_local)
    ip_send_frame                            0x00005f1d   Thumb Code   328  at_ip.o(i.ip_send_frame)
    is_subnet                                0x000060a1   Thumb Code    20  at_lib.o(i.is_subnet)
    main                                     0x000060b5   Thumb Code    36  main.o(i.main)
    main_TcpNet                              0x000060e1   Thumb Code    86  at_system.o(i.main_TcpNet)
    mem_comp                                 0x0000618d   Thumb Code    24  at_lib.o(i.mem_comp)
    mem_copy                                 0x000061a5   Thumb Code    22  at_lib.o(i.mem_copy)
    mem_crc32                                0x000061bb   Thumb Code    32  at_lib.o(i.mem_crc32)
    mem_set                                  0x000061db   Thumb Code    10  at_lib.o(i.mem_set)
    mem_test                                 0x000061e5   Thumb Code    20  at_lib.o(i.mem_test)
    mmc_DevCtrl                              0x000061f9   Thumb Code    36  fs_mmc.o(i.mmc_DevCtrl)
    mmc_Init                                 0x0000621d   Thumb Code   530  fs_mmc.o(i.mmc_Init)
    mmc_ReadInfo                             0x0000642f   Thumb Code    94  fs_mmc.o(i.mmc_ReadInfo)
    mmc_ReadSector                           0x0000648d   Thumb Code    84  fs_mmc.o(i.mmc_ReadSector)
    mmc_UnInit                               0x000064e5   Thumb Code    24  fs_mmc.o(i.mmc_UnInit)
    mmc_WriteSector                          0x000064fd   Thumb Code    88  fs_mmc.o(i.mmc_WriteSector)
    nbns_init                                0x000069c1   Thumb Code    32  at_nbns.o(i.nbns_init)
    nrd_u32be                                0x00006b49   Thumb Code    22  at_lib.o(i.nrd_u32be)
    nwr_u16be                                0x00006b5f   Thumb Code     8  at_lib.o(i.nwr_u16be)
    nwr_u32be                                0x00006b67   Thumb Code    16  at_lib.o(i.nwr_u32be)
    ppp_send_frame                           0x00006c71   Thumb Code     4  net_config.o(i.ppp_send_frame)
    put_in_queue                             0x00006e19   Thumb Code    36  at_ethernet.o(i.put_in_queue)
    resize_mem                               0x00006fc1   Thumb Code    68  at_mem.o(i.resize_mem)
    run_system                               0x00007009   Thumb Code    30  net_config.o(i.run_system)
    send_frame                               0x000070dd   Thumb Code    64  emac_lpc17xx.o(i.send_frame)
    sendchar                                 0x00007125   Thumb Code    24  retarget.o(i.sendchar)
    slip_send_frame                          0x00007259   Thumb Code     4  net_config.o(i.slip_send_frame)
    str_copy                                 0x0000727b   Thumb Code    18  at_lib.o(i.str_copy)
    str_crc32                                0x0000728d   Thumb Code    26  at_lib.o(i.str_crc32)
    str_pos                                  0x000072a7   Thumb Code    22  at_lib.o(i.str_pos)
    str_scomp                                0x000072bd   Thumb Code    26  at_lib.o(i.str_scomp)
    str_up_case                              0x000072d7   Thumb Code    26  at_lib.o(i.str_up_case)
    sys_error                                0x000072f1   Thumb Code    36  net_config.o(i.sys_error)
    tcp_abort                                0x00007315   Thumb Code    76  at_tcp.o(i.tcp_abort)
    tcp_close                                0x00007365   Thumb Code   150  at_tcp.o(i.tcp_close)
    tcp_get_buf                              0x00007401   Thumb Code    32  at_tcp.o(i.tcp_get_buf)
    tcp_get_socket                           0x00007421   Thumb Code    70  at_tcp.o(i.tcp_get_socket)
    tcp_get_state                            0x0000746d   Thumb Code    32  at_tcp.o(i.tcp_get_state)
    tcp_init                                 0x00007491   Thumb Code    18  at_tcp.o(i.tcp_init)
    tcp_listen                               0x000074a9   Thumb Code   102  at_tcp.o(i.tcp_listen)
    tcp_max_dsize                            0x000075ad   Thumb Code    30  at_tcp.o(i.tcp_max_dsize)
    tcp_poll_sockets                         0x00007631   Thumb Code   630  at_tcp.o(i.tcp_poll_sockets)
    tcp_process                              0x000079d1   Thumb Code  1196  at_tcp.o(i.tcp_process)
    tcp_send                                 0x00007f51   Thumb Code   204  at_tcp.o(i.tcp_send)
    timer_tick                               0x000082b9   Thumb Code    14  at_system.o(i.timer_tick)
    udp_close                                0x00008355   Thumb Code    38  at_udp.o(i.udp_close)
    udp_get_buf                              0x00008381   Thumb Code    32  at_udp.o(i.udp_get_buf)
    udp_get_socket                           0x000083a1   Thumb Code    62  at_udp.o(i.udp_get_socket)
    udp_init                                 0x000083e5   Thumb Code    18  at_udp.o(i.udp_init)
    udp_open                                 0x000083fd   Thumb Code    96  at_udp.o(i.udp_open)
    udp_process                              0x00008491   Thumb Code   178  at_udp.o(i.udp_process)
    udp_release_socket                       0x00008549   Thumb Code    44  at_udp.o(i.udp_release_socket)
    udp_send                                 0x00008579   Thumb Code   280  at_udp.o(i.udp_send)
    _get_lc_ctype                            0x000089c5   Thumb Code    44  lc_ctype_c.o(locale$$code)
    _NFILE                                   0x000089f0   Data           2  file_config.o(.constdata)
    _NDRV                                    0x000089f2   Data           2  file_config.o(.constdata)
    fat_ncache                               0x000089f4   Data          12  file_config.o(.constdata)
    mc0_drv                                  0x00008a00   Data          24  file_config.o(.constdata)
    fs_DevPool                               0x00008a18   Data           8  file_config.o(.constdata)
    spi0_drv                                 0x00008a20   Data          32  spi_lpc17xx.o(.constdata)
    FileMD                                   0x00008a50   Data           4  web.o(.constdata)
    FileTab                                  0x00056f74   Data          48  web.o(.constdata)
    nlocalm                                  0x00056fa4   Data          60  net_config.o(.constdata)
    sys_config                               0x00056fe0   Data          16  net_config.o(.constdata)
    arp_config                               0x00056ff0   Data          12  net_config.o(.constdata)
    dhcp_config                              0x00056ffc   Data           8  net_config.o(.constdata)
    udp_config                               0x00057004   Data           8  net_config.o(.constdata)
    tcp_config                               0x0005700c   Data          24  net_config.o(.constdata)
    http_config                              0x00057024   Data          24  net_config.o(.constdata)
    IP_Broadcast                             0x0005704c   Data           4  at_ip.o(.constdata)
    MAC_Broadcast                            0x00057150   Data           6  at_ethernet.o(.constdata)
    http_err_401                             0x0005760a   Data          86  http_err.o(.constdata)
    http_err_403                             0x00057660   Data          81  http_err.o(.constdata)
    http_err_404                             0x000576b1   Data          78  http_err.o(.constdata)
    http_err_501                             0x000576ff   Data          75  http_err.o(.constdata)
    http_err_head                            0x0005774a   Data          47  http_err.o(.constdata)
    http_err_foot                            0x00057779   Data         136  http_err.o(.constdata)
    Region$$Table$$Base                      0x0005785c   Number         0  anon$$obj.o(Region$$Table)
    Region$$Table$$Limit                     0x0005789c   Number         0  anon$$obj.o(Region$$Table)
    __ctype                                  0x000578a9   Data           0  lc_ctype_c.o(locale$$data)
    LEDrun                                   0x10000000   Data           4  main.o(.data)
    show_update                              0x10000004   Data           4  main.o(.data)
    tick                                     0x10000008   Data           4  main.o(.data)
    dhcp_tout                                0x1000000c   Data           4  main.o(.data)
    lcd_text                                 0x10000010   Data          34  main.o(.data)
    SystemCoreClock                          0x10000034   Data           4  system_lpc17xx.o(.data)
    lhost_name                               0x10000039   Data          16  net_config.o(.data)
    own_hw_adr                               0x10000049   Data           6  net_config.o(.data)
    _iob                                     0x1000007c   Data         288  file_config.o(.bss)
    localm                                   0x1000498c   Data          60  at_system.o(.bss)
    sys_control                              0x100049c8   Data          16  at_system.o(.bss)
    __libspace_start                         0x100049d8   Data          96  libspace.o(.bss)
    __temporary_stack_top$libspace           0x10004a38   Data           0  libspace.o(.bss)
    iap_entry                                0x2007c000   Data           4  emac_lpc17xx.o(.data)



==============================================================================

Memory Map of the image

  Image Entry point : 0x000000cd

  Load Region LR_IROM1 (Base: 0x00000000, Size: 0x00057a30, Max: 0x00080000, ABSOLUTE)

    Execution Region ER_IROM1 (Base: 0x00000000, Size: 0x000579ac, Max: 0x00080000, ABSOLUTE)

    Base Addr    Size         Type   Attr      Idx    E Section Name        Object

    0x00000000   0x000000cc   Data   RO          579    RESET               startup_lpc17xx.o
    0x000000cc   0x00000008   Code   RO         1631  * !!!main             c_w.l(__main.o)
    0x000000d4   0x00000034   Code   RO         1965    !!!scatter          c_w.l(__scatter.o)
    0x00000108   0x0000001a   Code   RO         1967    !!handler_copy      c_w.l(__scatter_copy.o)
    0x00000122   0x00000002   PAD
    0x00000124   0x0000001c   Code   RO         1969    !!handler_zi        c_w.l(__scatter_zi.o)
    0x00000140   0x00000000   Code   RO         1602    .ARM.Collect$$_printf_percent$$00000000  c_w.l(_printf_percent.o)
    0x00000140   0x00000006   Code   RO         1599    .ARM.Collect$$_printf_percent$$00000001  c_w.l(_printf_n.o)
    0x00000146   0x00000006   Code   RO         1600    .ARM.Collect$$_printf_percent$$00000002  c_w.l(_printf_p.o)
    0x0000014c   0x00000006   Code   RO         1601    .ARM.Collect$$_printf_percent$$00000009  c_w.l(_printf_d.o)
    0x00000152   0x00000006   Code   RO         1597    .ARM.Collect$$_printf_percent$$00000013  c_w.l(_printf_c.o)
    0x00000158   0x00000006   Code   RO         1598    .ARM.Collect$$_printf_percent$$00000014  c_w.l(_printf_s.o)
    0x0000015e   0x00000004   Code   RO         1709    .ARM.Collect$$_printf_percent$$00000017  c_w.l(_printf_percent_end.o)
    0x00000162   0x00000002   Code   RO         1842    .ARM.Collect$$libinit$$00000000  c_w.l(libinit.o)
    0x00000164   0x00000000   Code   RO         1844    .ARM.Collect$$libinit$$00000002  c_w.l(libinit2.o)
    0x00000164   0x00000000   Code   RO         1846    .ARM.Collect$$libinit$$00000004  c_w.l(libinit2.o)
    0x00000164   0x00000000   Code   RO         1849    .ARM.Collect$$libinit$$0000000A  c_w.l(libinit2.o)
    0x00000164   0x00000000   Code   RO         1851    .ARM.Collect$$libinit$$0000000C  c_w.l(libinit2.o)
    0x00000164   0x00000000   Code   RO         1853    .ARM.Collect$$libinit$$0000000E  c_w.l(libinit2.o)
    0x00000164   0x00000006   Code   RO         1854    .ARM.Collect$$libinit$$0000000F  c_w.l(libinit2.o)
    0x0000016a   0x00000000   Code   RO         1856    .ARM.Collect$$libinit$$00000011  c_w.l(libinit2.o)
    0x0000016a   0x0000000c   Code   RO         1857    .ARM.Collect$$libinit$$00000012  c_w.l(libinit2.o)
    0x00000176   0x00000000   Code   RO         1858    .ARM.Collect$$libinit$$00000013  c_w.l(libinit2.o)
    0x00000176   0x00000000   Code   RO         1860    .ARM.Collect$$libinit$$00000015  c_w.l(libinit2.o)
    0x00000176   0x00000000   Code   RO         1862    .ARM.Collect$$libinit$$00000017  c_w.l(libinit2.o)
    0x00000176   0x00000000   Code   RO         1864    .ARM.Collect$$libinit$$00000019  c_w.l(libinit2.o)
    0x00000176   0x00000000   Code   RO         1866    .ARM.Collect$$libinit$$0000001B  c_w.l(libinit2.o)
    0x00000176   0x00000000   Code   RO         1868    .ARM.Collect$$libinit$$0000001D  c_w.l(libinit2.o)
    0x00000176   0x00000000   Code   RO         1870    .ARM.Collect$$libinit$$0000001F  c_w.l(libinit2.o)
    0x00000176   0x00000000   Code   RO         1872    .ARM.Collect$$libinit$$00000021  c_w.l(libinit2.o)
    0x00000176   0x00000000   Code   RO         1874    .ARM.Collect$$libinit$$00000023  c_w.l(libinit2.o)
    0x00000176   0x00000000   Code   RO         1876    .ARM.Collect$$libinit$$00000025  c_w.l(libinit2.o)
    0x00000176   0x00000000   Code   RO         1880    .ARM.Collect$$libinit$$0000002C  c_w.l(libinit2.o)
    0x00000176   0x00000000   Code   RO         1882    .ARM.Collect$$libinit$$0000002E  c_w.l(libinit2.o)
    0x00000176   0x00000000   Code   RO         1884    .ARM.Collect$$libinit$$00000030  c_w.l(libinit2.o)
    0x00000176   0x00000000   Code   RO         1886    .ARM.Collect$$libinit$$00000032  c_w.l(libinit2.o)
    0x00000176   0x00000002   Code   RO         1887    .ARM.Collect$$libinit$$00000033  c_w.l(libinit2.o)
    0x00000178   0x00000002   Code   RO         1951    .ARM.Collect$$libshutdown$$00000000  c_w.l(libshutdown.o)
    0x0000017a   0x00000000   Code   RO         1889    .ARM.Collect$$libshutdown$$00000002  c_w.l(libshutdown2.o)
    0x0000017a   0x00000000   Code   RO         1891    .ARM.Collect$$libshutdown$$00000004  c_w.l(libshutdown2.o)
    0x0000017a   0x00000000   Code   RO         1894    .ARM.Collect$$libshutdown$$00000007  c_w.l(libshutdown2.o)
    0x0000017a   0x00000000   Code   RO         1897    .ARM.Collect$$libshutdown$$0000000A  c_w.l(libshutdown2.o)
    0x0000017a   0x00000000   Code   RO         1899    .ARM.Collect$$libshutdown$$0000000C  c_w.l(libshutdown2.o)
    0x0000017a   0x00000000   Code   RO         1902    .ARM.Collect$$libshutdown$$0000000F  c_w.l(libshutdown2.o)
    0x0000017a   0x00000002   Code   RO         1903    .ARM.Collect$$libshutdown$$00000010  c_w.l(libshutdown2.o)
    0x0000017c   0x00000000   Code   RO         1633    .ARM.Collect$$rtentry$$00000000  c_w.l(__rtentry.o)
    0x0000017c   0x00000000   Code   RO         1727    .ARM.Collect$$rtentry$$00000002  c_w.l(__rtentry2.o)
    0x0000017c   0x00000006   Code   RO         1739    .ARM.Collect$$rtentry$$00000004  c_w.l(__rtentry4.o)
    0x00000182   0x00000000   Code   RO         1729    .ARM.Collect$$rtentry$$00000009  c_w.l(__rtentry2.o)
    0x00000182   0x00000004   Code   RO         1730    .ARM.Collect$$rtentry$$0000000A  c_w.l(__rtentry2.o)
    0x00000186   0x00000000   Code   RO         1732    .ARM.Collect$$rtentry$$0000000C  c_w.l(__rtentry2.o)
    0x00000186   0x00000008   Code   RO         1733    .ARM.Collect$$rtentry$$0000000D  c_w.l(__rtentry2.o)
    0x0000018e   0x00000002   Code   RO         1904    .ARM.Collect$$rtexit$$00000000  c_w.l(rtexit.o)
    0x00000190   0x00000000   Code   RO         1927    .ARM.Collect$$rtexit$$00000002  c_w.l(rtexit2.o)
    0x00000190   0x00000004   Code   RO         1928    .ARM.Collect$$rtexit$$00000003  c_w.l(rtexit2.o)
    0x00000194   0x00000006   Code   RO         1929    .ARM.Collect$$rtexit$$00000004  c_w.l(rtexit2.o)
    0x0000019a   0x00000002   PAD
    0x0000019c   0x00000040   Code   RO          581    .text               startup_lpc17xx.o
    0x000001dc   0x00000002   Code   RO         1538    .text               c_w.l(use_no_semi.o)
    0x000001de   0x00000002   PAD
    0x000001e0   0x0000002c   Code   RO         1542    .text               c_w.l(__2sprintf.o)
    0x0000020c   0x0000004e   Code   RO         1548    .text               c_w.l(_printf_pad.o)
    0x0000025a   0x00000052   Code   RO         1550    .text               c_w.l(_printf_str.o)
    0x000002ac   0x00000028   Code   RO         1554    .text               c_w.l(_printf_charcount.o)
    0x000002d4   0x0000001a   Code   RO         1607    .text               c_w.l(atoi.o)
    0x000002ee   0x00000006   Code   RO         1629    .text               c_w.l(heapauxi.o)
    0x000002f4   0x00000008   Code   RO         1641    .text               c_w.l(rt_errno_addr_intlibspace.o)
    0x000002fc   0x00000004   Code   RO          580    .ARM.__at_0x02FC    startup_lpc17xx.o
    0x00000300   0x00000078   Code   RO         1552    .text               c_w.l(_printf_dec.o)
    0x00000378   0x00000054   Code   RO         1565    .text               c_w.l(_printf_hex_ptr.o)
    0x000003cc   0x00000188   Code   RO         1594    .text               c_w.l(__printf_flags_ss_wp.o)
    0x00000554   0x0000003c   Code   RO         1603    .text               c_w.l(__0sscanf.o)
    0x00000590   0x0000014c   Code   RO         1605    .text               c_w.l(_scanf_int.o)
    0x000006dc   0x0000004c   Code   RO         1609    .text               c_w.l(fclose.o)
    0x00000728   0x00000032   Code   RO         1613    .text               c_w.l(strncasecmp.o)
    0x0000075a   0x0000003e   Code   RO         1615    .text               c_w.l(strlen.o)
    0x00000798   0x0000008a   Code   RO         1617    .text               c_w.l(rt_memcpy_v6.o)
    0x00000822   0x00000064   Code   RO         1619    .text               c_w.l(rt_memcpy_w.o)
    0x00000886   0x00000044   Code   RO         1623    .text               c_w.l(rt_memclr.o)
    0x000008ca   0x0000004e   Code   RO         1625    .text               c_w.l(rt_memclr_w.o)
    0x00000918   0x00000080   Code   RO         1627    .text               c_w.l(strcmpv7m.o)
    0x00000998   0x0000004e   Code   RO         1645    .text               c_w.l(h1_free.o)
    0x000009e6   0x0000001a   Code   RO         1699    .text               c_w.l(tolower.o)
    0x00000a00   0x000000b2   Code   RO         1701    .text               c_w.l(_printf_intcommon.o)
    0x00000ab2   0x00000002   PAD
    0x00000ab4   0x00000030   Code   RO         1703    .text               c_w.l(_printf_char_common.o)
    0x00000ae4   0x0000000a   Code   RO         1705    .text               c_w.l(_sputc.o)
    0x00000aee   0x0000002c   Code   RO         1707    .text               c_w.l(_printf_char.o)
    0x00000b1a   0x0000001c   Code   RO         1710    .text               c_w.l(_chval.o)
    0x00000b36   0x00000002   PAD
    0x00000b38   0x0000002c   Code   RO         1712    .text               c_w.l(scanf_char.o)
    0x00000b64   0x00000040   Code   RO         1714    .text               c_w.l(_sgetc.o)
    0x00000ba4   0x00000070   Code   RO         1716    .text               c_w.l(strtol.o)
    0x00000c14   0x000000f0   Code   RO         1718    .text               c_w.l(stdio.o)
    0x00000d04   0x00000008   Code   RO         1721    .text               c_w.l(libspace.o)
    0x00000d0c   0x00000010   Code   RO         1741    .text               c_w.l(rt_ctype_table.o)
    0x00000d1c   0x00000008   Code   RO         1748    .text               c_w.l(rt_heap_descriptor_intlibspace.o)
    0x00000d24   0x00000012   Code   RO         1772    .text               c_w.l(isspace.o)
    0x00000d36   0x00000002   PAD
    0x00000d38   0x00000374   Code   RO         1776    .text               c_w.l(_scanf.o)
    0x000010ac   0x0000009e   Code   RO         1778    .text               c_w.l(_strtoul.o)
    0x0000114a   0x0000004a   Code   RO         1784    .text               c_w.l(sys_stackheap_outer.o)
    0x00001194   0x00000008   Code   RO         1789    .text               c_w.l(rt_locale_intlibspace.o)
    0x0000119c   0x00000012   Code   RO         1818    .text               c_w.l(exit.o)
    0x000011ae   0x00000002   PAD
    0x000011b0   0x00000030   Code   RO          341    i.BusSpeed          spi_lpc17xx.o
    0x000011e0   0x00000018   Code   RO          342    i.CheckMedia        spi_lpc17xx.o
    0x000011f8   0x000000b8   Code   RO          702    i.ENET_IRQHandler   emac_lpc17xx.o
    0x000012b0   0x000000b4   Code   RO          343    i.Init              spi_lpc17xx.o
    0x00001364   0x0000003c   Code   RO          451    i.LED_out           main.o
    0x000013a0   0x00000034   Code   RO          344    i.RecBuf            spi_lpc17xx.o
    0x000013d4   0x0000004c   Code   RO          420    i.SER_Init          serial.o
    0x00001420   0x00000018   Code   RO          421    i.SER_PutChar       serial.o
    0x00001438   0x00000020   Code   RO          345    i.Send              spi_lpc17xx.o
    0x00001458   0x00000044   Code   RO          346    i.SendBuf           spi_lpc17xx.o
    0x0000149c   0x00000020   Code   RO          347    i.SetSS             spi_lpc17xx.o
    0x000014bc   0x00000140   Code   RO          541    i.SystemInit        system_lpc17xx.o
    0x000015fc   0x00000070   Code   RO          348    i.UnInit            spi_lpc17xx.o
    0x0000166c   0x00000054   Code   RO          795    i.__sys_close       FS_CM3.lib(fs_sys.o)
    0x000016c0   0x0000004c   Code   RO          800    i.__sys_seek        FS_CM3.lib(fs_sys.o)
    0x0000170c   0x00000058   Code   RO          801    i.__sys_write       FS_CM3.lib(fs_sys.o)
    0x00001764   0x0000000e   Code   RO         1587    i._is_digit         c_w.l(__printf_wp.o)
    0x00001772   0x00000016   Code   RO          227    i._sys_close        retarget.o
    0x00001788   0x00000004   Code   RO          230    i._sys_exit         retarget.o
    0x0000178c   0x0000001c   Code   RO          235    i._sys_seek         retarget.o
    0x000017a8   0x00000042   Code   RO          237    i._sys_write        retarget.o
    0x000017ea   0x00000002   PAD
    0x000017ec   0x00000034   Code   RO         1029    i.add_server_id     TCP_CM3.lib(at_http.o)
    0x00001820   0x000000b8   Code   RO         1222    i.alloc_mem         TCP_CM3.lib(at_mem.o)
    0x000018d8   0x000000b8   Code   RO         1456    i.arp_cache_add     TCP_CM3.lib(at_arp.o)
    0x00001990   0x00000088   Code   RO         1457    i.arp_cache_alloc   TCP_CM3.lib(at_arp.o)
    0x00001a18   0x00000098   Code   RO         1458    i.arp_cache_early   TCP_CM3.lib(at_arp.o)
    0x00001ab0   0x000000b4   Code   RO         1459    i.arp_cache_find    TCP_CM3.lib(at_arp.o)
    0x00001b64   0x000000f4   Code   RO         1462    i.arp_cache_update  TCP_CM3.lib(at_arp.o)
    0x00001c58   0x0000002c   Code   RO         1465    i.arp_init          TCP_CM3.lib(at_arp.o)
    0x00001c84   0x00000034   Code   RO         1466    i.arp_is_cacheable  TCP_CM3.lib(at_arp.o)
    0x00001cb8   0x00000028   Code   RO         1467    i.arp_notify        TCP_CM3.lib(at_arp.o)
    0x00001ce0   0x00000014   Code   RO         1468    i.arp_probe         TCP_CM3.lib(at_arp.o)
    0x00001cf4   0x00000088   Code   RO         1469    i.arp_proc_response  TCP_CM3.lib(at_arp.o)
    0x00001d7c   0x00000138   Code   RO         1470    i.arp_process       TCP_CM3.lib(at_arp.o)
    0x00001eb4   0x000000a0   Code   RO         1471    i.arp_send_reply    TCP_CM3.lib(at_arp.o)
    0x00001f54   0x000000b8   Code   RO         1472    i.arp_send_request  TCP_CM3.lib(at_arp.o)
    0x0000200c   0x0000001c   Code   RO         1223    i.avail_mem         TCP_CM3.lib(at_mem.o)
    0x00002028   0x00000078   Code   RO         1167    i.b64_to_asc        TCP_CM3.lib(at_lib.o)
    0x000020a0   0x000000b0   Code   RO         1258    i.bs_read           FS_CM3.lib(fs_fat.o)
    0x00002150   0x00000092   Code   RO         1260    i.cache_fat         FS_CM3.lib(fs_fat.o)
    0x000021e2   0x00000012   Code   RO         1169    i.calc_chksum16be   TCP_CM3.lib(at_lib.o)
    0x000021f4   0x000000e0   Code   RO          599    i.cgi_func          http_cgi.o
    0x000022d4   0x00000144   Code   RO          600    i.cgi_process_data  http_cgi.o
    0x00002418   0x00000194   Code   RO          601    i.cgi_process_var   http_cgi.o
    0x000025ac   0x00000004   Code   RO         1030    i.cgx_content_type  TCP_CM3.lib(at_http.o)
    0x000025b0   0x00000060   Code   RO         1261    i.char_validate     FS_CM3.lib(fs_fat.o)
    0x00002610   0x000001cc   Code   RO         1031    i.chk_post_req      TCP_CM3.lib(at_http.o)
    0x000027dc   0x00000028   Code   RO         1170    i.chksum16_buf      TCP_CM3.lib(at_lib.o)
    0x00002804   0x0000000a   Code   RO         1171    i.chksum16_val      TCP_CM3.lib(at_lib.o)
    0x0000280e   0x00000024   Code   RO         1263    i.clus_to_sect      FS_CM3.lib(fs_fat.o)
    0x00002832   0x0000001e   Code   RO         1032    i.cmp_fname_ext     TCP_CM3.lib(at_http.o)
    0x00002850   0x00000028   Code   RO         1033    i.cmp_header        TCP_CM3.lib(at_http.o)
    0x00002878   0x0000010a   Code   RO         1264    i.count_free_clus   FS_CM3.lib(fs_fat.o)
    0x00002982   0x00000002   Code   RO         1121    i.dhcp_cbfunc       TCP_CM3.lib(at_dhcp.o)
    0x00002984   0x0000010c   Code   RO          453    i.dhcp_check        main.o
    0x00002a90   0x0000003c   Code   RO         1122    i.dhcp_disable      TCP_CM3.lib(at_dhcp.o)
    0x00002acc   0x00000050   Code   RO         1123    i.dhcp_init         TCP_CM3.lib(at_dhcp.o)
    0x00002b1c   0x000001fc   Code   RO         1124    i.dhcp_listener     TCP_CM3.lib(at_dhcp.o)
    0x00002d18   0x000001c4   Code   RO         1125    i.dhcp_run_client   TCP_CM3.lib(at_dhcp.o)
    0x00002edc   0x00000210   Code   RO         1126    i.dhcp_send_message  TCP_CM3.lib(at_dhcp.o)
    0x000030ec   0x00000004   Code   RO            7    i.efs_ffind         file_config.o
    0x000030f0   0x00000002   Code   RO           11    i.efs_fsize         file_config.o
    0x000030f2   0x00000004   Code   RO           14    i.efs_seek          file_config.o
    0x000030f6   0x00000004   Code   RO           15    i.efs_wclose        file_config.o
    0x000030fa   0x00000004   Code   RO           16    i.efs_write         file_config.o
    0x000030fe   0x00000004   Code   RO           17    i.elink_cmd         file_config.o
    0x00003102   0x00000004   Code   RO           19    i.elink_flush       file_config.o
    0x00003106   0x00000004   Code   RO           20    i.elink_init        file_config.o
    0x0000310a   0x00000004   Code   RO           21    i.elink_init_path   file_config.o
    0x0000310e   0x00000004   Code   RO           22    i.elink_insert      file_config.o
    0x00003112   0x00000004   Code   RO           23    i.elink_scan        file_config.o
    0x00003116   0x00000028   Code   RO         1268    i.entry_flush       FS_CM3.lib(fs_fat.o)
    0x0000313e   0x00000032   Code   RO         1269    i.entry_pos_comp    FS_CM3.lib(fs_fat.o)
    0x00003170   0x00000058   Code   RO         1270    i.entry_pos_set     FS_CM3.lib(fs_fat.o)
    0x000031c8   0x00000036   Code   RO         1271    i.entry_read        FS_CM3.lib(fs_fat.o)
    0x000031fe   0x0000002e   Code   RO         1272    i.entry_type        FS_CM3.lib(fs_fat.o)
    0x0000322c   0x00000010   Code   RO         1146    i.eth_chk_adr       TCP_CM3.lib(at_ethernet.o)
    0x0000323c   0x00000034   Code   RO         1148    i.eth_init_link     TCP_CM3.lib(at_ethernet.o)
    0x00003270   0x000000d4   Code   RO         1149    i.eth_run_link      TCP_CM3.lib(at_ethernet.o)
    0x00003344   0x000000a8   Code   RO         1150    i.eth_send_frame    TCP_CM3.lib(at_ethernet.o)
    0x000033ec   0x000000d8   Code   RO         1274    i.fat_close         FS_CM3.lib(fs_fat.o)
    0x000034c4   0x00000030   Code   RO         1275    i.fat_crc32         FS_CM3.lib(fs_fat.o)
    0x000034f4   0x000000f2   Code   RO         1277    i.fat_ffind         FS_CM3.lib(fs_fat.o)
    0x000035e6   0x00000152   Code   RO         1280    i.fat_init          FS_CM3.lib(fs_fat.o)
    0x00003738   0x00000004   Code   RO           24    i.fat_jour_init     file_config.o
    0x0000373c   0x000000b6   Code   RO         1287    i.fat_seek          FS_CM3.lib(fs_fat.o)
    0x000037f2   0x00000124   Code   RO         1288    i.fat_write         FS_CM3.lib(fs_fat.o)
    0x00003916   0x00000002   PAD
    0x00003918   0x000001c0   Code   RO          820    i.ffind             FS_CM3.lib(fs_mapi.o)
    0x00003ad8   0x0000007c   Code   RO          824    i.finit             FS_CM3.lib(fs_mapi.o)
    0x00003b54   0x0000022c   Code   RO         1292    i.frec_find         FS_CM3.lib(fs_fat.o)
    0x00003d80   0x00000058   Code   RO         1293    i.frec_find_elink   FS_CM3.lib(fs_fat.o)
    0x00003dd8   0x00000110   Code   RO         1294    i.frec_next         FS_CM3.lib(fs_fat.o)
    0x00003ee8   0x00000084   Code   RO         1224    i.free_mem          TCP_CM3.lib(at_mem.o)
    0x00003f6c   0x00000070   Code   RO          826    i.fs_cfg_drv        FS_CM3.lib(fs_mapi.o)
    0x00003fdc   0x0000002e   Code   RO         1431    i.fs_chk_media      FS_CM3.lib(fs_lib.o)
    0x0000400a   0x00000002   PAD
    0x0000400c   0x0000002c   Code   RO           26    i.fs_config         file_config.o
    0x00004038   0x0000002c   Code   RO         1435    i.fs_find_drv       FS_CM3.lib(fs_lib.o)
    0x00004064   0x00000038   Code   RO         1436    i.fs_find_iob       FS_CM3.lib(fs_lib.o)
    0x0000409c   0x00000008   Code   RO         1526    i.fs_get_date       FS_CM3.lib(fs_time.o)
    0x000040a4   0x00000006   Code   RO         1527    i.fs_get_time       FS_CM3.lib(fs_time.o)
    0x000040aa   0x00000002   PAD
    0x000040ac   0x00000078   Code   RO         1437    i.fs_map_drive      FS_CM3.lib(fs_lib.o)
    0x00004124   0x00000018   Code   RO         1439    i.fs_strpos         FS_CM3.lib(fs_lib.o)
    0x0000413c   0x00000080   Code   RO         1295    i.fsinfo_read       FS_CM3.lib(fs_fat.o)
    0x000041bc   0x00000064   Code   RO         1296    i.fsinfo_write      FS_CM3.lib(fs_fat.o)
    0x00004220   0x00000004   Code   RO           29    i.fsj_write         file_config.o
    0x00004224   0x000000a0   Code   RO          454    i.getSDData         main.o
    0x000042c4   0x00000022   Code   RO         1297    i.get_EOC           FS_CM3.lib(fs_fat.o)
    0x000042e6   0x00000002   PAD
    0x000042e8   0x00000024   Code   RO          455    i.get_button        main.o
    0x0000430c   0x00000028   Code   RO         1173    i.get_crc32         TCP_CM3.lib(at_lib.o)
    0x00004334   0x0000002e   Code   RO         1299    i.get_date          FS_CM3.lib(fs_fat.o)
    0x00004362   0x00000032   Code   RO         1300    i.get_fat_sect      FS_CM3.lib(fs_fat.o)
    0x00004394   0x00000068   Code   RO         1034    i.get_file_type     TCP_CM3.lib(at_http.o)
    0x000043fc   0x000000dc   Code   RO         1302    i.get_free_clus     FS_CM3.lib(fs_fat.o)
    0x000044d8   0x00000028   Code   RO         1035    i.get_next_field    TCP_CM3.lib(at_http.o)
    0x00004500   0x00000032   Code   RO         1036    i.get_next_par      TCP_CM3.lib(at_http.o)
    0x00004532   0x00000002   PAD
    0x00004534   0x0000001c   Code   RO         1242    i.get_rnd32         TCP_CM3.lib(at_system.o)
    0x00004550   0x0000002e   Code   RO         1304    i.get_time          FS_CM3.lib(fs_fat.o)
    0x0000457e   0x0000000a   Code   RO         1305    i.get_u16           FS_CM3.lib(fs_fat.o)
    0x00004588   0x00000016   Code   RO         1306    i.get_u32           FS_CM3.lib(fs_fat.o)
    0x0000459e   0x00000012   Code   RO         1037    i.hex2byte          TCP_CM3.lib(at_http.o)
    0x000045b0   0x00000004   Code   RO         1038    i.http_accept_host  TCP_CM3.lib(at_http.o)
    0x000045b4   0x000002fc   Code   RO         1039    i.http_add_header   TCP_CM3.lib(at_http.o)
    0x000048b0   0x00000004   Code   RO         1040    i.http_check_account  TCP_CM3.lib(at_http.o)
    0x000048b4   0x00000004   Code   RO         1042    i.http_encoding     TCP_CM3.lib(at_http.o)
    0x000048b8   0x00000188   Code   RO         1043    i.http_error_msg    TCP_CM3.lib(at_http.o)
    0x00004a40   0x00000002   Code   RO         1510    i.http_fclose       TCP_CM3.lib(at_http_uif.o)
    0x00004a42   0x00000004   Code   RO         1511    i.http_fgets        TCP_CM3.lib(at_http_uif.o)
    0x00004a46   0x00000004   Code   RO         1044    i.http_file_access  TCP_CM3.lib(at_http.o)
    0x00004a4a   0x00000004   Code   RO         1512    i.http_finfo        TCP_CM3.lib(at_http_uif.o)
    0x00004a4e   0x00000004   Code   RO         1513    i.http_fopen        TCP_CM3.lib(at_http_uif.o)
    0x00004a52   0x00000004   Code   RO         1514    i.http_fread        TCP_CM3.lib(at_http_uif.o)
    0x00004a56   0x00000002   PAD
    0x00004a58   0x0000006c   Code   RO         1050    i.http_get_var      TCP_CM3.lib(at_http.o)
    0x00004ac4   0x00000050   Code   RO         1051    i.http_init         TCP_CM3.lib(at_http.o)
    0x00004b14   0x0000005e   Code   RO         1052    i.http_kill_session  TCP_CM3.lib(at_http.o)
    0x00004b72   0x00000002   PAD
    0x00004b74   0x00000224   Code   RO         1053    i.http_listener     TCP_CM3.lib(at_http.o)
    0x00004d98   0x00000120   Code   RO         1054    i.http_open_file    TCP_CM3.lib(at_http.o)
    0x00004eb8   0x00000154   Code   RO         1055    i.http_proc_header  TCP_CM3.lib(at_http.o)
    0x0000500c   0x0000017c   Code   RO         1056    i.http_proc_multipart  TCP_CM3.lib(at_http.o)
    0x00005188   0x000000f8   Code   RO         1057    i.http_proc_post    TCP_CM3.lib(at_http.o)
    0x00005280   0x0000033c   Code   RO         1058    i.http_run_server   TCP_CM3.lib(at_http.o)
    0x000055bc   0x0000001e   Code   RO         1059    i.http_strcpy       TCP_CM3.lib(at_http.o)
    0x000055da   0x00000002   PAD
    0x000055dc   0x000000a8   Code   RO         1060    i.http_to_utc       TCP_CM3.lib(at_http.o)
    0x00005684   0x00000010   Code   RO          908    i.icmp_init         TCP_CM3.lib(at_icmp.o)
    0x00005694   0x000000cc   Code   RO          910    i.icmp_process      TCP_CM3.lib(at_icmp.o)
    0x00005760   0x00000048   Code   RO          911    i.icmp_run_engine   TCP_CM3.lib(at_icmp.o)
    0x000057a8   0x00000070   Code   RO          912    i.icmp_send_message  TCP_CM3.lib(at_icmp.o)
    0x00005818   0x00000038   Code   RO         1225    i.ifree_mem         TCP_CM3.lib(at_mem.o)
    0x00005850   0x00000004   Code   RO          637    i.igmp_is_member    net_config.o
    0x00005854   0x00000002   Code   RO          638    i.igmp_process      net_config.o
    0x00005856   0x00000002   PAD
    0x00005858   0x00000028   Code   RO          456    i.init              main.o
    0x00005880   0x00000030   Code   RO         1243    i.init_TcpNet       TCP_CM3.lib(at_system.o)
    0x000058b0   0x000000d2   Code   RO          829    i.init_drv          FS_CM3.lib(fs_mapi.o)
    0x00005982   0x00000002   PAD
    0x00005984   0x00000238   Code   RO          703    i.init_ethernet     emac_lpc17xx.o
    0x00005bbc   0x0000007c   Code   RO          457    i.init_io           main.o
    0x00005c38   0x00000060   Code   RO         1226    i.init_mem          TCP_CM3.lib(at_mem.o)
    0x00005c98   0x00000026   Code   RO          639    i.init_system       net_config.o
    0x00005cbe   0x00000002   PAD
    0x00005cc0   0x00000038   Code   RO          704    i.input_MDIO        emac_lpc17xx.o
    0x00005cf8   0x00000018   Code   RO          705    i.int_disable_eth   emac_lpc17xx.o
    0x00005d10   0x00000016   Code   RO          706    i.int_enable_eth    emac_lpc17xx.o
    0x00005d26   0x00000002   PAD
    0x00005d28   0x000000c8   Code   RO          888    i.ip_chk_frame      TCP_CM3.lib(at_ip.o)
    0x00005df0   0x0000000a   Code   RO          889    i.ip_get_chksum     TCP_CM3.lib(at_ip.o)
    0x00005dfa   0x00000002   PAD
    0x00005dfc   0x000000b8   Code   RO          890    i.ip_get_locadr     TCP_CM3.lib(at_ip.o)
    0x00005eb4   0x0000000c   Code   RO          891    i.ip_init           TCP_CM3.lib(at_ip.o)
    0x00005ec0   0x0000005c   Code   RO          892    i.ip_run_local      TCP_CM3.lib(at_ip.o)
    0x00005f1c   0x00000150   Code   RO          893    i.ip_send_frame     TCP_CM3.lib(at_ip.o)
    0x0000606c   0x00000034   Code   RO         1307    i.is_EOC            FS_CM3.lib(fs_fat.o)
    0x000060a0   0x00000014   Code   RO         1174    i.is_subnet         TCP_CM3.lib(at_lib.o)
    0x000060b4   0x0000002c   Code   RO          458    i.main              main.o
    0x000060e0   0x00000064   Code   RO         1244    i.main_TcpNet       TCP_CM3.lib(at_system.o)
    0x00006144   0x0000000c   Code   RO           30    i.mc0_DevCtrl       file_config.o
    0x00006150   0x0000000c   Code   RO           31    i.mc0_Init          file_config.o
    0x0000615c   0x0000000c   Code   RO           32    i.mc0_RdInfo        file_config.o
    0x00006168   0x0000000c   Code   RO           33    i.mc0_RdSect        file_config.o
    0x00006174   0x0000000c   Code   RO           34    i.mc0_UnInit        file_config.o
    0x00006180   0x0000000c   Code   RO           35    i.mc0_WrSect        file_config.o
    0x0000618c   0x00000018   Code   RO         1175    i.mem_comp          TCP_CM3.lib(at_lib.o)
    0x000061a4   0x00000016   Code   RO         1176    i.mem_copy          TCP_CM3.lib(at_lib.o)
    0x000061ba   0x00000020   Code   RO         1177    i.mem_crc32         TCP_CM3.lib(at_lib.o)
    0x000061da   0x0000000a   Code   RO         1179    i.mem_set           TCP_CM3.lib(at_lib.o)
    0x000061e4   0x00000014   Code   RO         1180    i.mem_test          TCP_CM3.lib(at_lib.o)
    0x000061f8   0x00000024   Code   RO          855    i.mmc_DevCtrl       FS_CM3.lib(fs_mmc.o)
    0x0000621c   0x00000212   Code   RO          856    i.mmc_Init          FS_CM3.lib(fs_mmc.o)
    0x0000642e   0x0000005e   Code   RO          857    i.mmc_ReadInfo      FS_CM3.lib(fs_mmc.o)
    0x0000648c   0x00000058   Code   RO          858    i.mmc_ReadSector    FS_CM3.lib(fs_mmc.o)
    0x000064e4   0x00000018   Code   RO          859    i.mmc_UnInit        FS_CM3.lib(fs_mmc.o)
    0x000064fc   0x0000005c   Code   RO          860    i.mmc_WriteSector   FS_CM3.lib(fs_mmc.o)
    0x00006558   0x000000a2   Code   RO          861    i.mmc_command       FS_CM3.lib(fs_mmc.o)
    0x000065fa   0x00000086   Code   RO          862    i.mmc_fill_cid      FS_CM3.lib(fs_mmc.o)
    0x00006680   0x00000070   Code   RO          863    i.mmc_read_block    FS_CM3.lib(fs_mmc.o)
    0x000066f0   0x0000003c   Code   RO          864    i.mmc_read_cid      FS_CM3.lib(fs_mmc.o)
    0x0000672c   0x000000dc   Code   RO          865    i.mmc_read_csd      FS_CM3.lib(fs_mmc.o)
    0x00006808   0x00000050   Code   RO          866    i.mmc_read_info     FS_CM3.lib(fs_mmc.o)
    0x00006858   0x00000094   Code   RO          867    i.mmc_write_block   FS_CM3.lib(fs_mmc.o)
    0x000068ec   0x0000007a   Code   RO         1318    i.name_analyse      FS_CM3.lib(fs_fat.o)
    0x00006966   0x00000008   Code   RO         1320    i.name_hash         FS_CM3.lib(fs_fat.o)
    0x0000696e   0x00000052   Code   RO         1322    i.name_strip        FS_CM3.lib(fs_fat.o)
    0x000069c0   0x00000028   Code   RO         1109    i.nbns_init         TCP_CM3.lib(at_nbns.o)
    0x000069e8   0x00000160   Code   RO         1110    i.nbns_listener     TCP_CM3.lib(at_nbns.o)
    0x00006b48   0x00000016   Code   RO         1182    i.nrd_u32be         TCP_CM3.lib(at_lib.o)
    0x00006b5e   0x00000008   Code   RO         1183    i.nwr_u16be         TCP_CM3.lib(at_lib.o)
    0x00006b66   0x00000010   Code   RO         1184    i.nwr_u32be         TCP_CM3.lib(at_lib.o)
    0x00006b76   0x00000002   PAD
    0x00006b78   0x0000004c   Code   RO          707    i.output_MDIO       emac_lpc17xx.o
    0x00006bc4   0x000000ac   Code   RO         1324    i.path_open         FS_CM3.lib(fs_fat.o)
    0x00006c70   0x00000004   Code   RO          640    i.ppp_send_frame    net_config.o
    0x00006c74   0x00000068   Code   RO         1127    i.proc_opt_renew    TCP_CM3.lib(at_dhcp.o)
    0x00006cdc   0x000000e0   Code   RO         1128    i.proc_opt_req      TCP_CM3.lib(at_dhcp.o)
    0x00006dbc   0x00000034   Code   RO         1129    i.proc_opt_sel      TCP_CM3.lib(at_dhcp.o)
    0x00006df0   0x00000028   Code   RO         1061    i.proc_req_line     TCP_CM3.lib(at_http.o)
    0x00006e18   0x00000028   Code   RO         1151    i.put_in_queue      TCP_CM3.lib(at_ethernet.o)
    0x00006e40   0x0000008c   Code   RO          708    i.read_PHY          emac_lpc17xx.o
    0x00006ecc   0x000000a0   Code   RO         1062    i.read_script_line  TCP_CM3.lib(at_http.o)
    0x00006f6c   0x00000052   Code   RO         1327    i.read_sector       FS_CM3.lib(fs_fat.o)
    0x00006fbe   0x00000002   PAD
    0x00006fc0   0x00000048   Code   RO         1227    i.resize_mem        TCP_CM3.lib(at_mem.o)
    0x00007008   0x0000001e   Code   RO          641    i.run_system        net_config.o
    0x00007026   0x00000002   PAD
    0x00007028   0x00000068   Code   RO          709    i.rx_descr_init     emac_lpc17xx.o
    0x00007090   0x0000004c   Code   RO         1063    i.search_delim      TCP_CM3.lib(at_http.o)
    0x000070dc   0x00000048   Code   RO          710    i.send_frame        emac_lpc17xx.o
    0x00007124   0x00000018   Code   RO          240    i.sendchar          retarget.o
    0x0000713c   0x00000094   Code   RO         1328    i.set_next_clus     FS_CM3.lib(fs_fat.o)
    0x000071d0   0x0000000e   Code   RO         1329    i.set_root_clus     FS_CM3.lib(fs_fat.o)
    0x000071de   0x00000008   Code   RO         1330    i.set_u16           FS_CM3.lib(fs_fat.o)
    0x000071e6   0x00000010   Code   RO         1331    i.set_u32           FS_CM3.lib(fs_fat.o)
    0x000071f6   0x00000048   Code   RO         1332    i.sfn_extract       FS_CM3.lib(fs_fat.o)
    0x0000723e   0x0000001a   Code   RO         1333    i.short_ent_hash    FS_CM3.lib(fs_fat.o)
    0x00007258   0x00000004   Code   RO          642    i.slip_send_frame   net_config.o
    0x0000725c   0x0000001e   Code   RO         1334    i.sn_chksum         FS_CM3.lib(fs_fat.o)
    0x0000727a   0x00000012   Code   RO         1185    i.str_copy          TCP_CM3.lib(at_lib.o)
    0x0000728c   0x0000001a   Code   RO         1186    i.str_crc32         TCP_CM3.lib(at_lib.o)
    0x000072a6   0x00000016   Code   RO         1187    i.str_pos           TCP_CM3.lib(at_lib.o)
    0x000072bc   0x0000001a   Code   RO         1188    i.str_scomp         TCP_CM3.lib(at_lib.o)
    0x000072d6   0x0000001a   Code   RO         1190    i.str_up_case       TCP_CM3.lib(at_lib.o)
    0x000072f0   0x00000024   Code   RO          644    i.sys_error         net_config.o
    0x00007314   0x00000050   Code   RO          925    i.tcp_abort         TCP_CM3.lib(at_tcp.o)
    0x00007364   0x0000009c   Code   RO          927    i.tcp_close         TCP_CM3.lib(at_tcp.o)
    0x00007400   0x00000020   Code   RO          930    i.tcp_get_buf       TCP_CM3.lib(at_tcp.o)
    0x00007420   0x0000004c   Code   RO          932    i.tcp_get_socket    TCP_CM3.lib(at_tcp.o)
    0x0000746c   0x00000024   Code   RO          933    i.tcp_get_state     TCP_CM3.lib(at_tcp.o)
    0x00007490   0x00000018   Code   RO          934    i.tcp_init          TCP_CM3.lib(at_tcp.o)
    0x000074a8   0x0000006c   Code   RO          936    i.tcp_listen        TCP_CM3.lib(at_tcp.o)
    0x00007514   0x00000098   Code   RO          937    i.tcp_map_socket    TCP_CM3.lib(at_tcp.o)
    0x000075ac   0x00000024   Code   RO          938    i.tcp_max_dsize     TCP_CM3.lib(at_tcp.o)
    0x000075d0   0x0000005e   Code   RO          940    i.tcp_parse_opt     TCP_CM3.lib(at_tcp.o)
    0x0000762e   0x00000002   PAD
    0x00007630   0x00000284   Code   RO          941    i.tcp_poll_sockets  TCP_CM3.lib(at_tcp.o)
    0x000078b4   0x000000c8   Code   RO          942    i.tcp_proc_acknr    TCP_CM3.lib(at_tcp.o)
    0x0000797c   0x00000052   Code   RO          943    i.tcp_proc_dupack   TCP_CM3.lib(at_tcp.o)
    0x000079ce   0x00000002   PAD
    0x000079d0   0x000004b8   Code   RO          944    i.tcp_process       TCP_CM3.lib(at_tcp.o)
    0x00007e88   0x0000001a   Code   RO          945    i.tcp_que_free      TCP_CM3.lib(at_tcp.o)
    0x00007ea2   0x0000001a   Code   RO          946    i.tcp_que_init      TCP_CM3.lib(at_tcp.o)
    0x00007ebc   0x00000094   Code   RO          947    i.tcp_que_resend    TCP_CM3.lib(at_tcp.o)
    0x00007f50   0x000000d4   Code   RO          951    i.tcp_send          TCP_CM3.lib(at_tcp.o)
    0x00008024   0x0000006a   Code   RO          952    i.tcp_send_ctrl     TCP_CM3.lib(at_tcp.o)
    0x0000808e   0x00000050   Code   RO          953    i.tcp_send_data     TCP_CM3.lib(at_tcp.o)
    0x000080de   0x00000068   Code   RO          954    i.tcp_send_reset    TCP_CM3.lib(at_tcp.o)
    0x00008146   0x00000026   Code   RO          955    i.tcp_set_cwnd      TCP_CM3.lib(at_tcp.o)
    0x0000816c   0x00000068   Code   RO          956    i.tcp_transit       TCP_CM3.lib(at_tcp.o)
    0x000081d4   0x000000c4   Code   RO          957    i.tcp_write         TCP_CM3.lib(at_tcp.o)
    0x00008298   0x00000020   Code   RO          459    i.timer_poll        main.o
    0x000082b8   0x00000014   Code   RO         1245    i.timer_tick        TCP_CM3.lib(at_system.o)
    0x000082cc   0x0000002c   Code   RO          711    i.turnaround_MDIO   emac_lpc17xx.o
    0x000082f8   0x0000005c   Code   RO          712    i.tx_descr_init     emac_lpc17xx.o
    0x00008354   0x0000002c   Code   RO          998    i.udp_close         TCP_CM3.lib(at_udp.o)
    0x00008380   0x00000020   Code   RO         1000    i.udp_get_buf       TCP_CM3.lib(at_udp.o)
    0x000083a0   0x00000044   Code   RO         1001    i.udp_get_socket    TCP_CM3.lib(at_udp.o)
    0x000083e4   0x00000018   Code   RO         1002    i.udp_init          TCP_CM3.lib(at_udp.o)
    0x000083fc   0x00000068   Code   RO         1005    i.udp_open          TCP_CM3.lib(at_udp.o)
    0x00008464   0x0000002c   Code   RO         1006    i.udp_port_in_use   TCP_CM3.lib(at_udp.o)
    0x00008490   0x000000b8   Code   RO         1007    i.udp_process       TCP_CM3.lib(at_udp.o)
    0x00008548   0x00000030   Code   RO         1008    i.udp_release_socket  TCP_CM3.lib(at_udp.o)
    0x00008578   0x0000011c   Code   RO         1009    i.udp_send          TCP_CM3.lib(at_udp.o)
    0x00008694   0x000000e0   Code   RO         1064    i.utc_to_http       TCP_CM3.lib(at_http.o)
    0x00008774   0x00000088   Code   RO          713    i.write_PHY         emac_lpc17xx.o
    0x000087fc   0x000000ae   Code   RO         1337    i.write_cache       FS_CM3.lib(fs_fat.o)
    0x000088aa   0x000000e8   Code   RO         1338    i.write_fat_link    FS_CM3.lib(fs_fat.o)
    0x00008992   0x00000030   Code   RO         1339    i.write_sector      FS_CM3.lib(fs_fat.o)
    0x000089c2   0x00000002   PAD
    0x000089c4   0x0000002c   Code   RO         1816    locale$$code        c_w.l(lc_ctype_c.o)
    0x000089f0   0x00000030   Data   RO           37    .constdata          file_config.o
    0x00008a20   0x00000020   Data   RO          349    .constdata          spi_lpc17xx.o
    0x00008a40   0x00000010   Data   RO          460    .constdata          main.o
    0x00008a50   0x0004e554   Data   RO          587    .constdata          web.o
    0x00056fa4   0x00000098   Data   RO          646    .constdata          net_config.o
    0x0005703c   0x00000010   Data   RO          868    .constdata          FS_CM3.lib(fs_mmc.o)
    0x0005704c   0x00000008   Data   RO          894    .constdata          TCP_CM3.lib(at_ip.o)
    0x00057054   0x000000f4   Data   RO         1065    .constdata          TCP_CM3.lib(at_http.o)
    0x00057148   0x00000008   Data   RO         1111    .constdata          TCP_CM3.lib(at_nbns.o)
    0x00057150   0x00000006   Data   RO         1153    .constdata          TCP_CM3.lib(at_ethernet.o)
    0x00057156   0x00000002   PAD
    0x00057158   0x000004ac   Data   RO         1340    .constdata          FS_CM3.lib(fs_fat.o)
    0x00057604   0x00000006   Data   RO         1473    .constdata          TCP_CM3.lib(at_arp.o)
    0x0005760a   0x00000056   Data   RO         1498    .constdata          TCP_CM3.lib(http_err.o)
    0x00057660   0x00000051   Data   RO         1499    .constdata          TCP_CM3.lib(http_err.o)
    0x000576b1   0x0000004e   Data   RO         1500    .constdata          TCP_CM3.lib(http_err.o)
    0x000576ff   0x0000004b   Data   RO         1501    .constdata          TCP_CM3.lib(http_err.o)
    0x0005774a   0x0000002f   Data   RO         1502    .constdata          TCP_CM3.lib(http_err.o)
    0x00057779   0x00000088   Data   RO         1503    .constdata          TCP_CM3.lib(http_err.o)
    0x00057801   0x00000028   Data   RO         1566    .constdata          c_w.l(_printf_hex_ptr.o)
    0x00057829   0x00000011   Data   RO         1595    .constdata          c_w.l(__printf_flags_ss_wp.o)
    0x0005783a   0x00000002   PAD
    0x0005783c   0x0000001d   Data   RO          647    .conststring        net_config.o
    0x00057859   0x00000003   PAD
    0x0005785c   0x00000040   Data   RO         1964    Region$$Table       anon$$obj.o
    0x0005789c   0x00000110   Data   RO         1815    locale$$data        c_w.l(lc_ctype_c.o)


    Execution Region RW_IRAM1 (Base: 0x10000000, Size: 0x00005438, Max: 0x00008000, ABSOLUTE)

    Base Addr    Size         Type   Attr      Idx    E Section Name        Object

    0x10000000   0x00000032   Data   RW          461    .data               main.o
    0x10000032   0x00000002   PAD
    0x10000034   0x00000004   Data   RW          542    .data               system_lpc17xx.o
    0x10000038   0x00000001   Data   RW          603    .data               http_cgi.o
    0x10000039   0x00000016   Data   RW          648    .data               net_config.o
    0x1000004f   0x00000001   Data   RW          831    .data               FS_CM3.lib(fs_mapi.o)
    0x10000050   0x0000000c   Data   RW          895    .data               TCP_CM3.lib(at_ip.o)
    0x1000005c   0x00000004   Data   RW          958    .data               TCP_CM3.lib(at_tcp.o)
    0x10000060   0x00000002   Data   RW         1010    .data               TCP_CM3.lib(at_udp.o)
    0x10000062   0x00000002   PAD
    0x10000064   0x0000000c   Data   RW         1066    .data               TCP_CM3.lib(at_http.o)
    0x10000070   0x00000001   Data   RW         1112    .data               TCP_CM3.lib(at_nbns.o)
    0x10000071   0x00000003   PAD
    0x10000074   0x00000008   Data   RW         1474    .data               TCP_CM3.lib(at_arp.o)
    0x1000007c   0x000015a0   Zero   RW           36    .bss                file_config.o
    0x1000161c   0x000032ac   Zero   RW          645    .bss                net_config.o
    0x100048c8   0x00000010   Zero   RW          913    .bss                TCP_CM3.lib(at_icmp.o)
    0x100048d8   0x00000020   Zero   RW         1130    .bss                TCP_CM3.lib(at_dhcp.o)
    0x100048f8   0x00000084   Zero   RW         1152    .bss                TCP_CM3.lib(at_ethernet.o)
    0x1000497c   0x00000010   Zero   RW         1228    .bss                TCP_CM3.lib(at_mem.o)
    0x1000498c   0x0000004c   Zero   RW         1246    .bss                TCP_CM3.lib(at_system.o)
    0x100049d8   0x00000060   Zero   RW         1722    .bss                c_w.l(libspace.o)
    0x10004a38   0x00000200   Zero   RW          578    HEAP                startup_lpc17xx.o
    0x10004c38   0x00000800   Zero   RW          577    STACK               startup_lpc17xx.o


    Execution Region RW_IRAM2 (Base: 0x2007c000, Size: 0x00002a6c, Max: 0x00008000, ABSOLUTE)

    Base Addr    Size         Type   Attr      Idx    E Section Name        Object

    0x2007c000   0x00000005   Data   RW          715    .data               emac_lpc17xx.o
    0x2007c005   0x00000003   PAD
    0x2007c008   0x00002a64   Zero   RW          714    .bss                emac_lpc17xx.o


==============================================================================

Image component sizes


      Code (inc. data)   RO Data    RW Data    ZI Data      Debug   Object Name

      1518        150          0          5      10852      53874   emac_lpc17xx.o
       166         48         48          0       5536      27258   file_config.o
       952        200          0          1          0       9860   http_cgi.o
       764        224         16         50          0      12504   main.o
       118          8        181         22      12972       4826   net_config.o
       144          0          0          0          0      10977   retarget.o
       100         16          0          0          0        909   serial.o
       548         76         32          0          0       7675   spi_lpc17xx.o
        68         30        204          0       2560        968   startup_lpc17xx.o
       320         18          0          4          0        823   system_lpc17xx.o
         0          0     320852          0          0       6833   web.o

    ----------------------------------------------------------------------
      4708        770     321400         87      31920     136507   Object Totals
         0          0         64          0          0          0   (incl. Generated)
        10          0          3          5          0          0   (incl. Padding)

    ----------------------------------------------------------------------

      Code (inc. data)   RO Data    RW Data    ZI Data      Debug   Library Member Name

      5174         52       1196          0          0       3468   fs_fat.o
       290         26          0          0          0        384   fs_lib.o
       894         48          0          1          0        360   fs_mapi.o
      1780         20         16          0          0       1064   fs_mmc.o
       248         28          0          0          0        244   fs_sys.o
        14          4          0          0          0        136   fs_time.o
      1844        144          6          8          0       1108   at_arp.o
      2010        114          0          0         32        812   at_dhcp.o
       488         58          6          0        132        404   at_ethernet.o
      5582       1192        244         12          0       2336   at_http.o
        18          0          0          0          0        340   at_http_uif.o
       404         30          0          0         16        308   at_icmp.o
       834         56          8         12          0        520   at_ip.o
       520          6          0          0          0       1360   at_lib.o
       568         46          0          0         16        520   at_mem.o
       392         26          8          1          0        184   at_nbns.o
       196         40          0          0         76        292   at_system.o
      3968        158          0          4          0       2008   at_tcp.o
       832         44          0          2          0        700   at_udp.o
         0          0        503          0          0          0   http_err.o
        60          8          0          0          0         84   __0sscanf.o
        44          6          0          0          0         84   __2sprintf.o
         8          0          0          0          0         68   __main.o
       392          4         17          0          0         92   __printf_flags_ss_wp.o
        14          0          0          0          0         68   __printf_wp.o
         0          0          0          0          0          0   __rtentry.o
        12          0          0          0          0          0   __rtentry2.o
         6          0          0          0          0          0   __rtentry4.o
        52          8          0          0          0          0   __scatter.o
        26          0          0          0          0          0   __scatter_copy.o
        28          0          0          0          0          0   __scatter_zi.o
        28          0          0          0          0         68   _chval.o
         6          0          0          0          0          0   _printf_c.o
        44          0          0          0          0        108   _printf_char.o
        48          6          0          0          0         96   _printf_char_common.o
        40          0          0          0          0         68   _printf_charcount.o
         6          0          0          0          0          0   _printf_d.o
       120         16          0          0          0         92   _printf_dec.o
        84          6         40          0          0         88   _printf_hex_ptr.o
       178          0          0          0          0         88   _printf_intcommon.o
         6          0          0          0          0          0   _printf_n.o
         6          0          0          0          0          0   _printf_p.o
        78          0          0          0          0        108   _printf_pad.o
         0          0          0          0          0          0   _printf_percent.o
         4          0          0          0          0          0   _printf_percent_end.o
         6          0          0          0          0          0   _printf_s.o
        82          0          0          0          0         80   _printf_str.o
       884          6          0          0          0        100   _scanf.o
       332          0          0          0          0         96   _scanf_int.o
        64          0          0          0          0         84   _sgetc.o
        10          0          0          0          0         68   _sputc.o
       158          0          0          0          0         92   _strtoul.o
        26          0          0          0          0         80   atoi.o
        18          0          0          0          0         80   exit.o
        76          0          0          0          0         88   fclose.o
        78          0          0          0          0         80   h1_free.o
         6          0          0          0          0        152   heapauxi.o
        18          0          0          0          0         76   isspace.o
        44         10        272          0          0         76   lc_ctype_c.o
         2          0          0          0          0          0   libinit.o
        20          0          0          0          0          0   libinit2.o
         2          0          0          0          0          0   libshutdown.o
         2          0          0          0          0          0   libshutdown2.o
         8          4          0          0         96         68   libspace.o
        16          4          0          0          0         76   rt_ctype_table.o
         8          4          0          0          0         68   rt_errno_addr_intlibspace.o
         8          4          0          0          0         68   rt_heap_descriptor_intlibspace.o
         8          4          0          0          0         68   rt_locale_intlibspace.o
        68          0          0          0          0         68   rt_memclr.o
        78          0          0          0          0         80   rt_memclr_w.o
       138          0          0          0          0         68   rt_memcpy_v6.o
       100          0          0          0          0         80   rt_memcpy_w.o
         2          0          0          0          0          0   rtexit.o
        10          0          0          0          0          0   rtexit2.o
        44          8          0          0          0         84   scanf_char.o
       240          6          0          0          0        156   stdio.o
       128          0          0          0          0         68   strcmpv7m.o
        62          0          0          0          0         76   strlen.o
        50          0          0          0          0         84   strncasecmp.o
       112          0          0          0          0         88   strtol.o
        74          0          0          0          0         80   sys_stackheap_outer.o
        26          0          0          0          0         76   tolower.o
         2          0          0          0          0         68   use_no_semi.o

    ----------------------------------------------------------------------
     30400       2196       2320         45        368      20236   Library Totals
        44          0          4          5          0          0   (incl. Padding)

    ----------------------------------------------------------------------

      Code (inc. data)   RO Data    RW Data    ZI Data      Debug   Library Name

      8400        178       1212          1          0       5656   FS_CM3.lib
     17656       1914        775         39        272      10892   TCP_CM3.lib
      4300        104        329          0         96       3688   c_w.l

    ----------------------------------------------------------------------
     30400       2196       2320         45        368      20236   Library Totals

    ----------------------------------------------------------------------

==============================================================================


      Code (inc. data)   RO Data    RW Data    ZI Data      Debug   

     35108       2966     323720        132      32288     140879   Grand Totals
     35108       2966     323720        132      32288     140879   ELF Image Totals
     35108       2966     323720        132          0          0   ROM Totals

==============================================================================

    Total RO  Size (Code + RO Data)               358828 ( 350.42kB)
    Total RW  Size (RW Data + ZI Data)             32420 (  31.66kB)
    Total ROM Size (Code + RO Data + RW Data)     358960 ( 350.55kB)

==============================================================================

